(lp1
L16001L
aL16002L
aL16003L
aL16004L
aL16005L
aL16006L
aL16007L
aL16008L
aL16009L
aL16010L
aL16011L
aL16012L
aL16013L
aL16014L
aL16015L
aL16016L
aL16017L
aL16018L
aL16019L
aL16020L
aL16021L
aL16022L
aL16023L
aL16024L
aL16025L
aL16026L
aL16027L
aL16028L
aL16029L
aL16030L
aL16031L
aL16032L
aL16033L
aL16034L
aL16035L
aL16036L
aL16037L
aL16038L
aL16039L
aL16040L
aL16041L
aL16042L
aL16043L
aL16044L
aL16045L
aL16046L
aL16047L
aL16048L
aL16049L
aL16050L
aL16051L
aL16052L
aL16053L
aL16054L
aL16055L
aL16056L
aL16057L
aL16058L
aL16059L
aL16060L
aL16061L
aL16062L
aL16063L
aL16064L
aL16065L
aL16066L
aL16067L
aL16068L
aL16069L
aL16070L
aL16071L
aL16072L
aL16073L
aL16074L
aL16075L
aL16076L
aL16077L
aL16078L
aL16079L
aL16080L
aL16081L
aL16082L
aL16083L
aL16084L
aL16085L
aL16086L
aL16087L
aL16088L
aL16089L
aL16090L
aL16091L
aL16092L
aL16093L
aL16094L
aL16095L
aL16096L
aL16097L
aL16098L
aL16099L
aL16100L
aL16101L
aL16102L
aL16103L
aL16104L
aL16105L
aL16106L
aL16107L
aL16108L
aL16109L
aL16110L
aL16111L
aL16112L
aL16113L
aL16114L
aL16115L
aL16116L
aL16117L
aL16118L
aL16119L
aL16120L
aL16121L
aL16122L
aL16123L
aL16124L
aL16125L
aL16126L
aL16127L
aL16128L
aL16129L
aL16130L
aL16131L
aL16132L
aL16133L
aL16134L
aL16135L
aL16136L
aL16137L
aL16138L
aL16139L
aL16140L
aL16141L
aL16142L
aL16143L
aL16144L
aL16145L
aL16146L
aL16147L
aL16148L
aL16149L
aL16150L
aL16151L
aL16152L
aL16153L
aL16154L
aL16155L
aL16156L
aL16157L
aL16158L
aL16159L
aL16160L
aL16161L
aL16162L
aL16163L
aL16164L
aL16165L
aL16166L
aL16167L
aL16168L
aL16169L
aL16170L
aL16171L
aL16172L
aL16173L
aL16174L
aL16175L
aL16176L
aL16177L
aL16178L
aL16179L
aL16180L
aL16181L
aL16182L
aL16183L
aL16184L
aL16185L
aL16186L
aL16187L
aL16188L
aL16189L
aL16190L
aL16191L
aL16192L
aL16193L
aL16194L
aL16195L
aL16196L
aL16197L
aL16198L
aL16199L
aL16200L
aL16201L
aL16202L
aL16203L
aL16204L
aL16205L
aL16206L
aL16207L
aL16208L
aL16209L
aL16210L
aL16211L
aL16212L
aL16213L
aL16214L
aL16215L
aL16216L
aL16217L
aL16218L
aL16219L
aL16220L
aL16221L
aL16222L
aL16223L
aL16224L
aL16225L
aL16226L
aL16227L
aL16228L
aL16229L
aL16230L
aL16231L
aL16232L
aL16233L
aL16234L
aL16235L
aL16236L
aL16237L
aL16238L
aL16239L
aL16240L
aL16241L
aL16242L
aL16243L
aL16244L
aL16245L
aL16246L
aL16247L
aL16248L
aL16249L
aL16250L
aL16251L
aL16252L
aL16253L
aL16254L
aL16255L
aL16256L
aL16257L
aL16258L
aL16259L
aL16260L
aL16261L
aL16262L
aL16263L
aL16264L
aL16265L
aL16266L
aL16267L
aL16268L
aL16269L
aL16270L
aL16271L
aL16272L
aL16273L
aL16274L
aL16275L
aL16276L
aL16277L
aL16278L
aL16279L
aL16280L
aL16281L
aL16282L
aL16283L
aL16284L
aL16285L
aL16286L
aL16287L
aL16288L
aL16289L
aL16290L
aL16291L
aL16292L
aL16293L
aL16294L
aL16295L
aL16296L
aL16297L
aL16298L
aL16299L
aL16300L
aL16301L
aL16302L
aL16303L
aL16304L
aL16305L
aL16306L
aL16307L
aL16308L
aL16309L
aL16310L
aL16311L
aL16312L
aL16313L
aL16314L
aL16315L
aL16316L
aL16317L
aL16318L
aL16319L
aL16320L
aL16321L
aL16322L
aL16323L
aL16324L
aL16325L
aL16326L
aL16327L
aL16328L
aL16329L
aL16330L
aL16331L
aL16332L
aL16333L
aL16334L
aL16335L
aL16336L
aL16337L
aL16338L
aL16339L
aL16340L
aL16341L
aL16342L
aL16343L
aL16344L
aL16345L
aL16346L
aL16347L
aL16348L
aL16349L
aL16350L
aL16351L
aL16352L
aL16353L
aL16354L
aL16355L
aL16356L
aL16357L
aL16358L
aL16359L
aL16360L
aL16361L
aL16362L
aL16363L
aL16364L
aL16365L
aL16366L
aL16367L
aL16368L
aL16369L
aL16370L
aL16371L
aL16372L
aL16373L
aL16374L
aL16375L
aL16376L
aL16377L
aL16378L
aL16379L
aL16380L
aL16381L
aL16382L
aL16383L
aL16384L
aL16385L
aL16386L
aL16387L
aL16388L
aL16389L
aL16390L
aL16391L
aL16392L
aL16393L
aL16394L
aL16395L
aL16396L
aL16397L
aL16398L
aL16399L
aL16400L
aL16401L
aL16402L
aL16403L
aL16404L
aL16405L
aL16406L
aL16407L
aL16408L
aL16409L
aL16410L
aL16411L
aL16412L
aL16413L
aL16414L
aL16415L
aL16416L
aL16417L
aL16418L
aL16419L
aL16420L
aL16421L
aL16422L
aL16423L
aL16424L
aL16425L
aL16426L
aL16427L
aL16428L
aL16429L
aL16430L
aL16431L
aL16432L
aL16433L
aL16434L
aL16435L
aL16436L
aL16437L
aL16438L
aL16439L
aL16440L
aL16441L
aL16442L
aL16443L
aL16444L
aL16445L
aL16446L
aL16447L
aL16448L
aL16449L
aL16450L
aL16451L
aL16452L
aL16453L
aL16454L
aL16455L
aL16456L
aL16457L
aL16458L
aL16459L
aL16460L
aL16461L
aL16462L
aL16463L
aL16464L
aL16465L
aL16466L
aL16467L
aL16468L
aL16469L
aL16470L
aL16471L
aL16472L
aL16473L
aL16474L
aL16475L
aL16476L
aL16477L
aL16478L
aL16479L
aL16480L
aL16481L
aL16482L
aL16483L
aL16484L
aL16485L
aL16486L
aL16487L
aL16488L
aL16489L
aL16490L
aL16491L
aL16492L
aL16493L
aL16494L
aL16495L
aL16496L
aL16497L
aL16498L
aL16499L
aL16500L
aL16501L
aL16502L
aL16503L
aL16504L
aL16505L
aL16506L
aL16507L
aL16508L
aL16509L
aL16510L
aL16511L
aL16512L
aL16513L
aL16514L
aL16515L
aL16516L
aL16517L
aL16518L
aL16519L
aL16520L
aL16521L
aL16522L
aL16523L
aL16524L
aL16525L
aL16526L
aL16527L
aL16528L
aL16529L
aL16530L
aL16531L
aL16532L
aL16533L
aL16534L
aL16535L
aL16536L
aL16537L
aL16538L
aL16539L
aL16540L
aL16541L
aL16542L
aL16543L
aL16544L
aL16545L
aL16546L
aL16547L
aL16548L
aL16549L
aL16550L
aL16551L
aL16552L
aL16553L
aL16554L
aL16555L
aL16556L
aL16557L
aL16558L
aL16559L
aL16560L
aL16561L
aL16562L
aL16563L
aL16564L
aL16565L
aL16566L
aL16567L
aL16568L
aL16569L
aL16570L
aL16571L
aL16572L
aL16573L
aL16574L
aL16575L
aL16576L
aL16577L
aL16578L
aL16579L
aL16580L
aL16581L
aL16582L
aL16583L
aL16584L
aL16585L
aL16586L
aL16587L
aL16588L
aL16589L
aL16590L
aL16591L
aL16592L
aL16593L
aL16594L
aL16595L
aL16596L
aL16597L
aL16598L
aL16599L
aL16600L
aL16601L
aL16602L
aL16603L
aL16604L
aL16605L
aL16606L
aL16607L
aL16608L
aL16609L
aL16610L
aL16611L
aL16612L
aL16613L
aL16614L
aL16615L
aL16616L
aL16617L
aL16618L
aL16619L
aL16620L
aL16621L
aL16622L
aL16623L
aL16624L
aL16625L
aL16626L
aL16627L
aL16628L
aL16629L
aL16630L
aL16631L
aL16632L
aL16633L
aL16634L
aL16635L
aL16636L
aL16637L
aL16638L
aL16639L
aL16640L
aL16641L
aL16642L
aL16643L
aL16644L
aL16645L
aL16646L
aL16647L
aL16648L
aL16649L
aL16650L
aL16651L
aL16652L
aL16653L
aL16654L
aL16655L
aL16656L
aL16657L
aL16658L
aL16659L
aL16660L
aL16661L
aL16662L
aL16663L
aL16664L
aL16665L
aL16666L
aL16667L
aL16668L
aL16669L
aL16670L
aL16671L
aL16672L
aL16673L
aL16674L
aL16675L
aL16676L
aL16677L
aL16678L
aL16679L
aL16680L
aL16681L
aL16682L
aL16683L
aL16684L
aL16685L
aL16686L
aL16687L
aL16688L
aL16689L
aL16690L
aL16691L
aL16692L
aL16693L
aL16694L
aL16695L
aL16696L
aL16697L
aL16698L
aL16699L
aL16700L
aL16701L
aL16702L
aL16703L
aL16704L
aL16705L
aL16706L
aL16707L
aL16708L
aL16709L
aL16710L
aL16711L
aL16712L
aL16713L
aL16714L
aL16715L
aL16716L
aL16717L
aL16718L
aL16719L
aL16720L
aL16721L
aL16722L
aL16723L
aL16724L
aL16725L
aL16726L
aL16727L
aL16728L
aL16729L
aL16730L
aL16731L
aL16732L
aL16733L
aL16734L
aL16735L
aL16736L
aL16737L
aL16738L
aL16739L
aL16740L
aL16741L
aL16742L
aL16743L
aL16744L
aL16745L
aL16746L
aL16747L
aL16748L
aL16749L
aL16750L
aL16751L
aL16752L
aL16753L
aL16754L
aL16755L
aL16756L
aL16757L
aL16758L
aL16759L
aL16760L
aL16761L
aL16762L
aL16763L
aL16764L
aL16765L
aL16766L
aL16767L
aL16768L
aL16769L
aL16770L
aL16771L
aL16772L
aL16773L
aL16774L
aL16775L
aL16776L
aL16777L
aL16778L
aL16779L
aL16780L
aL16781L
aL16782L
aL16783L
aL16784L
aL16785L
aL16786L
aL16787L
aL16788L
aL16789L
aL16790L
aL16791L
aL16792L
aL16793L
aL16794L
aL16795L
aL16796L
aL16797L
aL16798L
aL16799L
aL16800L
aL16801L
aL16802L
aL16803L
aL16804L
aL16805L
aL16806L
aL16807L
aL16808L
aL16809L
aL16810L
aL16811L
aL16812L
aL16813L
aL16814L
aL16815L
aL16816L
aL16817L
aL16818L
aL16819L
aL16820L
aL16821L
aL16822L
aL16823L
aL16824L
aL16825L
aL16826L
aL16827L
aL16828L
aL16829L
aL16830L
aL16831L
aL16832L
aL16833L
aL16834L
aL16835L
aL16836L
aL16837L
aL16838L
aL16839L
aL16840L
aL16841L
aL16842L
aL16843L
aL16844L
aL16845L
aL16846L
aL16847L
aL16848L
aL16849L
aL16850L
aL16851L
aL16852L
aL16853L
aL16854L
aL16855L
aL16856L
aL16857L
aL16858L
aL16859L
aL16860L
aL16861L
aL16862L
aL16863L
aL16864L
aL16865L
aL16866L
aL16867L
aL16868L
aL16869L
aL16870L
aL16871L
aL16872L
aL16873L
aL16874L
aL16875L
aL16876L
aL16877L
aL16878L
aL16879L
aL16880L
aL16881L
aL16882L
aL16883L
aL16884L
aL16885L
aL16886L
aL16887L
aL16888L
aL16889L
aL16890L
aL16891L
aL16892L
aL16893L
aL16894L
aL16895L
aL16896L
aL16897L
aL16898L
aL16899L
aL16900L
aL16901L
aL16902L
aL16903L
aL16904L
aL16905L
aL16906L
aL16907L
aL16908L
aL16909L
aL16910L
aL16911L
aL16912L
aL16913L
aL16914L
aL16915L
aL16916L
aL16917L
aL16918L
aL16919L
aL16920L
aL16921L
aL16922L
aL16923L
aL16924L
aL16925L
aL16926L
aL16927L
aL16928L
aL16929L
aL16930L
aL16931L
aL16932L
aL16933L
aL16934L
aL16935L
aL16936L
aL16937L
aL16938L
aL16939L
aL16940L
aL16941L
aL16942L
aL16943L
aL16944L
aL16945L
aL16946L
aL16947L
aL16948L
aL16949L
aL16950L
aL16951L
aL16952L
aL16953L
aL16954L
aL16955L
aL16956L
aL16957L
aL16958L
aL16959L
aL16960L
aL16961L
aL16962L
aL16963L
aL16964L
aL16965L
aL16966L
aL16967L
aL16968L
aL16969L
aL16970L
aL16971L
aL16972L
aL16973L
aL16974L
aL16975L
aL16976L
aL16977L
aL16978L
aL16979L
aL16980L
aL16981L
aL16982L
aL16983L
aL16984L
aL16985L
aL16986L
aL16987L
aL16988L
aL16989L
aL16990L
aL16991L
aL16992L
aL16993L
aL16994L
aL16995L
aL16996L
aL16997L
aL16998L
aL16999L
aL17000L
aL17001L
aL17002L
aL17003L
aL17004L
aL17005L
aL17006L
aL17007L
aL17008L
aL17009L
aL17010L
aL17011L
aL17012L
aL17013L
aL17014L
aL17015L
aL17016L
aL17017L
aL17018L
aL17019L
aL17020L
aL17021L
aL17022L
aL17023L
aL17024L
aL17025L
aL17026L
aL17027L
aL17028L
aL17029L
aL17030L
aL17031L
aL17032L
aL17033L
aL17034L
aL17035L
aL17036L
aL17037L
aL17038L
aL17039L
aL17040L
aL17041L
aL17042L
aL17043L
aL17044L
aL17045L
aL17046L
aL17047L
aL17048L
aL17049L
aL17050L
aL17051L
aL17052L
aL17053L
aL17054L
aL17055L
aL17056L
aL17057L
aL17058L
aL17059L
aL17060L
aL17061L
aL17062L
aL17063L
aL17064L
aL17065L
aL17066L
aL17067L
aL17068L
aL17069L
aL17070L
aL17071L
aL17072L
aL17073L
aL17074L
aL17075L
aL17076L
aL17077L
aL17078L
aL17079L
aL17080L
aL17081L
aL17082L
aL17083L
aL17084L
aL17085L
aL17086L
aL17087L
aL17088L
aL17089L
aL17090L
aL17091L
aL17092L
aL17093L
aL17094L
aL17095L
aL17096L
aL17097L
aL17098L
aL17099L
aL17100L
aL17101L
aL17102L
aL17103L
aL17104L
aL17105L
aL17106L
aL17107L
aL17108L
aL17109L
aL17110L
aL17111L
aL17112L
aL17113L
aL17114L
aL17115L
aL17116L
aL17117L
aL17118L
aL17119L
aL17120L
aL17121L
aL17122L
aL17123L
aL17124L
aL17125L
aL17126L
aL17127L
aL17128L
aL17129L
aL17130L
aL17131L
aL17132L
aL17133L
aL17134L
aL17135L
aL17136L
aL17137L
aL17138L
aL17139L
aL17140L
aL17141L
aL17142L
aL17143L
aL17144L
aL17145L
aL17146L
aL17147L
aL17148L
aL17149L
aL17150L
aL17151L
aL17152L
aL17153L
aL17154L
aL17155L
aL17156L
aL17157L
aL17158L
aL17159L
aL17160L
aL17161L
aL17162L
aL17163L
aL17164L
aL17165L
aL17166L
aL17167L
aL17168L
aL17169L
aL17170L
aL17171L
aL17172L
aL17173L
aL17174L
aL17175L
aL17176L
aL17177L
aL17178L
aL17179L
aL17180L
aL17181L
aL17182L
aL17183L
aL17184L
aL17185L
aL17186L
aL17187L
aL17188L
aL17189L
aL17190L
aL17191L
aL17192L
aL17193L
aL17194L
aL17195L
aL17196L
aL17197L
aL17198L
aL17199L
aL17200L
aL18052L
aL18053L
aL18054L
aL18055L
aL18056L
aL18057L
aL18058L
aL18059L
aL18060L
aL18061L
aL18062L
aL18063L
aL18064L
aL18065L
aL18066L
aL18067L
aL18068L
aL18069L
aL18070L
aL18071L
aL18072L
aL18073L
aL18074L
aL18075L
aL18076L
aL18077L
aL18078L
aL18079L
aL18080L
aL18081L
aL18082L
aL18083L
aL18084L
aL18085L
aL18086L
aL18087L
aL18088L
aL18089L
aL18090L
aL18091L
aL18092L
aL18093L
aL18094L
aL18095L
aL18096L
aL18097L
aL18098L
aL18099L
aL18100L
aL18101L
aL18102L
aL18103L
aL18104L
aL18105L
aL18106L
aL18107L
aL18108L
aL18109L
aL18110L
aL18111L
aL18112L
aL18113L
aL18114L
aL18115L
aL18116L
aL18117L
aL18118L
aL18119L
aL18120L
aL18121L
aL18122L
aL18123L
aL18124L
aL18125L
aL18126L
aL18127L
aL18128L
aL18129L
aL18130L
aL18131L
aL18132L
aL18133L
aL18134L
aL18135L
aL18136L
aL18137L
aL18138L
aL18139L
aL18140L
aL18141L
aL18142L
aL18143L
aL18144L
aL18145L
aL18146L
aL18147L
aL18148L
aL18149L
aL18150L
aL18151L
aL18152L
aL18153L
aL18154L
aL18155L
aL18156L
aL18157L
aL18158L
aL18159L
aL18160L
aL18161L
aL18162L
aL18163L
aL18164L
aL18165L
aL18166L
aL18167L
aL18168L
aL18169L
aL18170L
aL18171L
aL18172L
aL18173L
aL18174L
aL18175L
aL18176L
aL18177L
aL18178L
aL18179L
aL18180L
aL18181L
aL18182L
aL18183L
aL18184L
aL18185L
aL18186L
aL18187L
aL18188L
aL18189L
aL18190L
aL18191L
aL18192L
aL18193L
aL18194L
aL18195L
aL18196L
aL18197L
aL18198L
aL18199L
aL18200L
aL18201L
aL18202L
aL18203L
aL18204L
aL18205L
aL18206L
aL18207L
aL18208L
aL18209L
aL18210L
aL18211L
aL18212L
aL18213L
aL18214L
aL18215L
aL18216L
aL18217L
aL18218L
aL18219L
aL18220L
aL18221L
aL18222L
aL18223L
aL18224L
aL18225L
aL18226L
aL18227L
aL18228L
aL18229L
aL18230L
aL18231L
aL18232L
aL18233L
aL18234L
aL18235L
aL18236L
aL18237L
aL18238L
aL18239L
aL18240L
aL18241L
aL18242L
aL18243L
aL18244L
aL18245L
aL18246L
aL18247L
aL18248L
aL18249L
aL18250L
aL18251L
aL18252L
aL18253L
aL18254L
aL18255L
aL18256L
aL18257L
aL18258L
aL18259L
aL18260L
aL18261L
aL18262L
aL18263L
aL18264L
aL18265L
aL18266L
aL18267L
aL18268L
aL18269L
aL18270L
aL18271L
aL18272L
aL18273L
aL18274L
aL18275L
aL18276L
aL18277L
aL18278L
aL18279L
aL18280L
aL18281L
aL18282L
aL18283L
aL18284L
aL18285L
aL18286L
aL18287L
aL18288L
aL18289L
aL18290L
aL18291L
aL18292L
aL18293L
aL18294L
aL18295L
aL18296L
aL18297L
aL18298L
aL18299L
aL18300L
aL18301L
aL18302L
aL18303L
aL18304L
aL18305L
aL18306L
aL18307L
aL18308L
aL18309L
aL18310L
aL18311L
aL18312L
aL18313L
aL18314L
aL18315L
aL18316L
aL18317L
aL18318L
aL18319L
aL18320L
aL18321L
aL18322L
aL18323L
aL18324L
aL18325L
aL18326L
aL18327L
aL18328L
aL18329L
aL18330L
aL18331L
aL18332L
aL18333L
aL18334L
aL18335L
aL18336L
aL18337L
aL18338L
aL18339L
aL18340L
aL18341L
aL18342L
aL18343L
aL18344L
aL18345L
aL18346L
aL18347L
aL18348L
aL18349L
aL18350L
aL18351L
aL18352L
aL18353L
aL18354L
aL18355L
aL18356L
aL18357L
aL18358L
aL18359L
aL18360L
aL18361L
aL18362L
aL18363L
aL18364L
aL18365L
aL18366L
aL18367L
aL18368L
aL18369L
aL18370L
aL18371L
aL18372L
aL18373L
aL18374L
aL18375L
aL18376L
aL18377L
aL18378L
aL18379L
aL18380L
aL18381L
aL18382L
aL18383L
aL18384L
aL18385L
aL18386L
aL18387L
aL18388L
aL18389L
aL18390L
aL18391L
aL18392L
aL18393L
aL18394L
aL18395L
aL18396L
aL18397L
aL18398L
aL18399L
aL18400L
aL18401L
aL18402L
aL18403L
aL18404L
aL18405L
aL18406L
aL18407L
aL18408L
aL18409L
aL18410L
aL18411L
aL18412L
aL18413L
aL18414L
aL18415L
aL18416L
aL18417L
aL18418L
aL18419L
aL18420L
aL18421L
aL18422L
aL18423L
aL18424L
aL18425L
aL18426L
aL18427L
aL18428L
aL18429L
aL18430L
aL18431L
aL18432L
aL18433L
aL18434L
aL18435L
aL18436L
aL18437L
aL18438L
aL18439L
aL18440L
aL18441L
aL18442L
aL18443L
aL18444L
aL18445L
aL18446L
aL18447L
aL18448L
aL18449L
aL18450L
aL18451L
aL18452L
aL18453L
aL18454L
aL18455L
aL18456L
aL18457L
aL18458L
aL18459L
aL18460L
aL18461L
aL18462L
aL18463L
aL18464L
aL18465L
aL18466L
aL18467L
aL18468L
aL18469L
aL18470L
aL18471L
aL18472L
aL18473L
aL18474L
aL18475L
aL18476L
aL18477L
aL18478L
aL18479L
aL18480L
aL18481L
aL18482L
aL18483L
aL18484L
aL18485L
aL18486L
aL18487L
aL18488L
aL18489L
aL18490L
aL18491L
aL18492L
aL18493L
aL18494L
aL18495L
aL18496L
aL18497L
aL18498L
aL18499L
aL18500L
aL18501L
aL18502L
aL18503L
aL18504L
aL18505L
aL18506L
aL18507L
aL18508L
aL18509L
aL18510L
aL18511L
aL18512L
aL18513L
aL18514L
aL18515L
aL18516L
aL18517L
aL18518L
aL18519L
aL18520L
aL18521L
aL18522L
aL18523L
aL18524L
aL18525L
aL18526L
aL18527L
aL18528L
aL18529L
aL18530L
aL18531L
aL18532L
aL18533L
aL18534L
aL18535L
aL18536L
aL18537L
aL18538L
aL18539L
aL18540L
aL18541L
aL18542L
aL18543L
aL18544L
aL18545L
aL18546L
aL18547L
aL18548L
aL18549L
aL18550L
aL18551L
aL18552L
aL18553L
aL18554L
aL18555L
aL18556L
aL18557L
aL18558L
aL18559L
aL18560L
aL18561L
aL18562L
aL18563L
aL18564L
aL18565L
aL18566L
aL18567L
aL18568L
aL18569L
aL18570L
aL18571L
aL18572L
aL18573L
aL18574L
aL18575L
aL18576L
aL18577L
aL18578L
aL18579L
aL18580L
aL18581L
aL18582L
aL18583L
aL18584L
aL18585L
aL18586L
aL18587L
aL18588L
aL18589L
aL18590L
aL18591L
aL18592L
aL18593L
aL18594L
aL18595L
aL18596L
aL18597L
aL18598L
aL18599L
aL18600L
aL18601L
aL18602L
aL18603L
aL18604L
aL18605L
aL18606L
aL18607L
aL18608L
aL18609L
aL18610L
aL18611L
aL18612L
aL18613L
aL18614L
aL18615L
aL18616L
aL18617L
aL18618L
aL18619L
aL18620L
aL18621L
aL18622L
aL18623L
aL18624L
aL18625L
aL18626L
aL18627L
aL18628L
aL18629L
aL18630L
aL18631L
aL18632L
aL18633L
aL18634L
aL18635L
aL18636L
aL18637L
aL18638L
aL18639L
aL18640L
aL18641L
aL18642L
aL18643L
aL18644L
aL18645L
aL18646L
aL18647L
aL18648L
aL18649L
aL18650L
aL18651L
aL18652L
aL18653L
aL18654L
aL18655L
aL18656L
aL18657L
aL18658L
aL18659L
aL18660L
aL18661L
aL18662L
aL18663L
aL18664L
aL18665L
aL18666L
aL18667L
aL18668L
aL18669L
aL18670L
aL18671L
aL18672L
aL18673L
aL18674L
aL18675L
aL18676L
aL18677L
aL18678L
aL18679L
aL18680L
aL18681L
aL18682L
aL18683L
aL18684L
aL18685L
aL18686L
aL18687L
aL18688L
aL18689L
aL18690L
aL18691L
aL18692L
aL18693L
aL18694L
aL18695L
aL18696L
aL18697L
aL18698L
aL18699L
aL18700L
aL18701L
aL18702L
aL18703L
aL18704L
aL18705L
aL18706L
aL18707L
aL18708L
aL18709L
aL18710L
aL18711L
aL18712L
aL18713L
aL18714L
aL18715L
aL18716L
aL18717L
aL18718L
aL18719L
aL18720L
aL18721L
aL18722L
aL18723L
aL18724L
aL18725L
aL18726L
aL18727L
aL18728L
aL18729L
aL18730L
aL18731L
aL18732L
aL18733L
aL18734L
aL18735L
aL18736L
aL18737L
aL18738L
aL18739L
aL18740L
aL18741L
aL18742L
aL18743L
aL18744L
aL18745L
aL18746L
aL18747L
aL18748L
aL18749L
aL18750L
aL18751L
aL18752L
aL18753L
aL18754L
aL18755L
aL18756L
aL18757L
aL18758L
aL18759L
aL18760L
aL18761L
aL18762L
aL18763L
aL18764L
aL18765L
aL18766L
aL18767L
aL18768L
aL18769L
aL18770L
aL18771L
aL18772L
aL18773L
aL18774L
aL18775L
aL18776L
aL18777L
aL18778L
aL18779L
aL18780L
aL18781L
aL18782L
aL18783L
aL18784L
aL18785L
aL18786L
aL18787L
aL18788L
aL18789L
aL18790L
aL18791L
aL18792L
aL18793L
aL18794L
aL18795L
aL18796L
aL18797L
aL18798L
aL18799L
aL18800L
aL18801L
aL18802L
aL18803L
aL18804L
aL18805L
aL18806L
aL18807L
aL18808L
aL18809L
aL18810L
aL18811L
aL18812L
aL18813L
aL18814L
aL18815L
aL18816L
aL18817L
aL18818L
aL18819L
aL18820L
aL18821L
aL18822L
aL18823L
aL18824L
aL18825L
aL18826L
aL18827L
aL18828L
aL18829L
aL18830L
aL18831L
aL18832L
aL18833L
aL18834L
aL18835L
aL18836L
aL18837L
aL18838L
aL18839L
aL18840L
aL18841L
aL18842L
aL18843L
aL18844L
aL18845L
aL18846L
aL18847L
aL18848L
aL18849L
aL18850L
aL18851L
aL18852L
aL18853L
aL18854L
aL18855L
aL18856L
aL18857L
aL18858L
aL18859L
aL18860L
aL18861L
aL18862L
aL18863L
aL18864L
aL18865L
aL18866L
aL18867L
aL18868L
aL18869L
aL18870L
aL18871L
aL18872L
aL18873L
aL18874L
aL18875L
aL18876L
aL18877L
aL18878L
aL18879L
aL18880L
aL18881L
aL18882L
aL18883L
aL18884L
aL18885L
aL18886L
aL18887L
aL18888L
aL18889L
aL18890L
aL18891L
aL18892L
aL18893L
aL18894L
aL18895L
aL18896L
aL18897L
aL18898L
aL18899L
aL18900L
aL18901L
aL18902L
aL18903L
aL18904L
aL18905L
aL18906L
aL18907L
aL18908L
aL18909L
aL18910L
aL18911L
aL18912L
aL18913L
aL18914L
aL18915L
aL18916L
aL18917L
aL18918L
aL18919L
aL18920L
aL18921L
aL18922L
aL18923L
aL18924L
aL18925L
aL18926L
aL18927L
aL18928L
aL18929L
aL18930L
aL18931L
aL18932L
aL18933L
aL18934L
aL18935L
aL18936L
aL18937L
aL18938L
aL18939L
aL18940L
aL18941L
aL18942L
aL18943L
aL18944L
aL18945L
aL18946L
aL18947L
aL18948L
aL18949L
aL18950L
aL18951L
aL18952L
aL18953L
aL18954L
aL18955L
aL18956L
aL18957L
aL18958L
aL18959L
aL18960L
aL18961L
aL18962L
aL18963L
aL18964L
aL18965L
aL18966L
aL18967L
aL18968L
aL18969L
aL18970L
aL18971L
aL18972L
aL18973L
aL18974L
aL18975L
aL18976L
aL18977L
aL18978L
aL18979L
aL18980L
aL18981L
aL18982L
aL18983L
aL18984L
aL18985L
aL18986L
aL18987L
aL18988L
aL18989L
aL18990L
aL18991L
aL18992L
aL18993L
aL18994L
aL18995L
aL18996L
aL18997L
aL18998L
aL18999L
aL19000L
aL19001L
aL19002L
aL19003L
aL19004L
aL19005L
aL19006L
aL19007L
aL19008L
aL19009L
aL19010L
aL19011L
aL19012L
aL19013L
aL19014L
aL19015L
aL19016L
aL19017L
aL19018L
aL19019L
aL19020L
aL19021L
aL19022L
aL19023L
aL19024L
aL19025L
aL19026L
aL19027L
aL19028L
aL19029L
aL19030L
aL19031L
aL19032L
aL19033L
aL19034L
aL19035L
aL19036L
aL19037L
aL19038L
aL19039L
aL19040L
aL19041L
aL19042L
aL19043L
aL19044L
aL19045L
aL19046L
aL19047L
aL19048L
aL19049L
aL19050L
aL19051L
aL19052L
aL19053L
aL19054L
aL19055L
aL19056L
aL19057L
aL19058L
aL19059L
aL19060L
aL19061L
aL19062L
aL19063L
aL19064L
aL19065L
aL19066L
aL19067L
aL19068L
aL19069L
aL19070L
aL19071L
aL19072L
aL19073L
aL19074L
aL19075L
aL19076L
aL19077L
aL19078L
aL19079L
aL19080L
aL19081L
aL19082L
aL19083L
aL19084L
aL19085L
aL19086L
aL19087L
aL19088L
aL19089L
aL19090L
aL19091L
aL19092L
aL19093L
aL19094L
aL19095L
aL19096L
aL19097L
aL19098L
aL19099L
aL19100L
aL19101L
aL19102L
aL19103L
aL19104L
aL19105L
aL19106L
aL19107L
aL19108L
aL19109L
aL19110L
aL19111L
aL19112L
aL19113L
aL19114L
aL19115L
aL19116L
aL19117L
aL19118L
aL19119L
aL19120L
aL19121L
aL19122L
aL19123L
aL19124L
aL19125L
aL19126L
aL19127L
aL19128L
aL19129L
aL19130L
aL19131L
aL19132L
aL19133L
aL19134L
aL19135L
aL19136L
aL19137L
aL19138L
aL19139L
aL19140L
aL19141L
aL19142L
aL19143L
aL19144L
aL19145L
aL19146L
aL19147L
aL19148L
aL19149L
aL19150L
aL19151L
aL19152L
aL19153L
aL19154L
aL19155L
aL19156L
aL19157L
aL19158L
aL19159L
aL19160L
aL19161L
aL19162L
aL19163L
aL19164L
aL19165L
aL19166L
aL19167L
aL19168L
aL19169L
aL19170L
aL19171L
aL19172L
aL19173L
aL19174L
aL19175L
aL19176L
aL19177L
aL19178L
aL19179L
aL19180L
aL19181L
aL19182L
aL19183L
aL19184L
aL19185L
aL19186L
aL19187L
aL19188L
aL19189L
aL19190L
aL19191L
aL19192L
aL19193L
aL19194L
aL19195L
aL19196L
aL19197L
aL19198L
aL19199L
aL19200L
aL19201L
aL19202L
aL19203L
aL19204L
aL19205L
aL19206L
aL19207L
aL19208L
aL19209L
aL19210L
aL19211L
aL19212L
aL19213L
aL19214L
aL19215L
aL19216L
aL19217L
aL19218L
aL19219L
aL19220L
aL19221L
aL19222L
aL19223L
aL19224L
aL19225L
aL19226L
aL19227L
aL19228L
aL19229L
aL19230L
aL19231L
aL19232L
aL19233L
aL19234L
aL19235L
aL19236L
aL19237L
aL19238L
aL19239L
aL19240L
aL19241L
aL19242L
aL19243L
aL19244L
aL19245L
aL19246L
aL19247L
aL19248L
aL19249L
aL19250L
aL19251L
aL19252L
aL19253L
aL19254L
aL19255L
aL19256L
aL19257L
aL19258L
aL19259L
aL19260L
aL19261L
aL19262L
aL19263L
aL19264L
aL19265L
aL19266L
aL19267L
aL19268L
aL19269L
aL19270L
aL19271L
aL19272L
aL19273L
aL19274L
aL19275L
aL19276L
aL19277L
aL19278L
aL19279L
aL19280L
aL19281L
aL19282L
aL19283L
aL19284L
aL19285L
aL19286L
aL19287L
aL19288L
aL19289L
aL19290L
aL19291L
aL19292L
aL19293L
aL19294L
aL19295L
aL19296L
aL19297L
aL19298L
aL19299L
aL19300L
aL19301L
aL19302L
aL19303L
aL19304L
aL19305L
aL19306L
aL19307L
aL19308L
aL19309L
aL19310L
aL19311L
aL19312L
aL19313L
aL19314L
aL19315L
aL19316L
aL19317L
aL19318L
aL19319L
aL19320L
aL19321L
aL19322L
aL19323L
aL19324L
aL19325L
aL19326L
aL19327L
aL19328L
aL19329L
aL19330L
aL19331L
aL19332L
aL19333L
aL19334L
aL19335L
aL19336L
aL19337L
aL19338L
aL19339L
aL19340L
aL19341L
aL19342L
aL19343L
aL19344L
aL19345L
aL19346L
aL19347L
aL19348L
aL19349L
aL19350L
aL19351L
aL19352L
aL19353L
aL19354L
aL19355L
aL19356L
aL19357L
aL19358L
aL19359L
aL19360L
aL19361L
aL19362L
aL19363L
aL19364L
aL19365L
aL19366L
aL19367L
aL19368L
aL19369L
aL19370L
aL19371L
aL19372L
aL19373L
aL19374L
aL19375L
aL19376L
aL19377L
aL19378L
aL19379L
aL19380L
aL19381L
aL19382L
aL19383L
aL19384L
aL19385L
aL19386L
aL19387L
aL19388L
aL19389L
aL19390L
aL19391L
aL19392L
aL19393L
aL19394L
aL19395L
aL19396L
aL19397L
aL19398L
aL19399L
aL19400L
aL19401L
aL19402L
aL19403L
aL19404L
aL19405L
aL19406L
aL19407L
aL19408L
aL19409L
aL19410L
aL19411L
aL19412L
aL19413L
aL19414L
aL19415L
aL19416L
aL19417L
aL19418L
aL19419L
aL19420L
aL19421L
aL19422L
aL19423L
aL19424L
aL19425L
aL19426L
aL19427L
aL19428L
aL19429L
aL19430L
aL19431L
aL19432L
aL19433L
aL19434L
aL19435L
aL19436L
aL19437L
aL19438L
aL19439L
aL19440L
aL19441L
aL19442L
aL19443L
aL19444L
aL19445L
aL19446L
aL19447L
aL19448L
aL19449L
aL19450L
aL19451L
aL19452L
aL19453L
aL19454L
aL19455L
aL19456L
aL19457L
aL19458L
aL19459L
aL19460L
aL19461L
aL19462L
aL19463L
aL19464L
aL19465L
aL19466L
aL19467L
aL19468L
aL19469L
aL19470L
aL19471L
aL19472L
aL19473L
aL19474L
aL19475L
aL19476L
aL19477L
aL19478L
aL19479L
aL19480L
aL19481L
aL19482L
aL19483L
aL19484L
aL19485L
aL19486L
aL19487L
aL19488L
aL19489L
aL19490L
aL19491L
aL19492L
aL19493L
aL19494L
aL19495L
aL19496L
aL19497L
aL19498L
aL19499L
aL19500L
aL19501L
aL19502L
aL19503L
aL19504L
aL19505L
aL19506L
aL19507L
aL19508L
aL19509L
aL19510L
aL19511L
aL19512L
aL19513L
aL19514L
aL19515L
aL19516L
aL19517L
aL19518L
aL19519L
aL19520L
aL19521L
aL19522L
aL19523L
aL19524L
aL19525L
aL19526L
aL19527L
aL19528L
aL19529L
aL19530L
aL19531L
aL19532L
aL19533L
aL19534L
aL19535L
aL19536L
aL19537L
aL19538L
aL19539L
aL19540L
aL19541L
aL19542L
aL19543L
aL19544L
aL19545L
aL19546L
aL19547L
aL19548L
aL19549L
aL19550L
aL19551L
aL19552L
aL19553L
aL19554L
aL19555L
aL19556L
aL19557L
aL19558L
aL19559L
aL19560L
aL19561L
aL19562L
aL19563L
aL19564L
aL19565L
aL19566L
aL19567L
aL19568L
aL19569L
aL19570L
aL19571L
aL19572L
aL19573L
aL19574L
aL19575L
aL19576L
aL19577L
aL19578L
aL19579L
aL19580L
aL19581L
aL19582L
aL19583L
aL19584L
aL19585L
aL19586L
aL19587L
aL19588L
aL19589L
aL19590L
aL19591L
aL19592L
aL19593L
aL19594L
aL19595L
aL19596L
aL19597L
aL19598L
aL19599L
aL19600L
aL19601L
aL19602L
aL19603L
aL19604L
aL19605L
aL19606L
aL19607L
aL19608L
aL19609L
aL19610L
aL19611L
aL19612L
aL19613L
aL19614L
aL19615L
aL19616L
aL19617L
aL19618L
aL19619L
aL19620L
aL19621L
aL19622L
aL19623L
aL19624L
aL19625L
aL19626L
aL19627L
aL19628L
aL19629L
aL19630L
aL19631L
aL19632L
aL19633L
aL19634L
aL19635L
aL19636L
aL19637L
aL19638L
aL19639L
aL19640L
aL19641L
aL19642L
aL19643L
aL19644L
aL19645L
aL19646L
aL19647L
aL19648L
aL19649L
aL19650L
aL19651L
aL13151L
aL13152L
aL13153L
aL13154L
aL13155L
aL13156L
aL13157L
aL13158L
aL13159L
aL13160L
aL13161L
aL13162L
aL13163L
aL13164L
aL13165L
aL13166L
aL13167L
aL13168L
aL13169L
aL13170L
aL13171L
aL13172L
aL13173L
aL13174L
aL13175L
aL13176L
aL13177L
aL13178L
aL13179L
aL13180L
aL13181L
aL13182L
aL13183L
aL13184L
aL13185L
aL13186L
aL13187L
aL13188L
aL13189L
aL13190L
aL13191L
aL13192L
aL13193L
aL13194L
aL13195L
aL13196L
aL13197L
aL13198L
aL13199L
aL13200L
aL13201L
aL13202L
aL13203L
aL13204L
aL13205L
aL13206L
aL13207L
aL13208L
aL13209L
aL13210L
aL13211L
aL13212L
aL13213L
aL13214L
aL13215L
aL13216L
aL13217L
aL13218L
aL13219L
aL13220L
aL13221L
aL13222L
aL13223L
aL13224L
aL13225L
aL13226L
aL13227L
aL13228L
aL13229L
aL13230L
aL13231L
aL13232L
aL13233L
aL13234L
aL13235L
aL13236L
aL13237L
aL13238L
aL13239L
aL13240L
aL13241L
aL13242L
aL13243L
aL13244L
aL13245L
aL13246L
aL13247L
aL13248L
aL13249L
aL13250L
aL13251L
aL13252L
aL13253L
aL13254L
aL13255L
aL13256L
aL13257L
aL13258L
aL13259L
aL13260L
aL13261L
aL13262L
aL13263L
aL13264L
aL13265L
aL13266L
aL13267L
aL13268L
aL13269L
aL13270L
aL13271L
aL13272L
aL13273L
aL13274L
aL13275L
aL13276L
aL13277L
aL13278L
aL13279L
aL13280L
aL13281L
aL13282L
aL13283L
aL13284L
aL13285L
aL13286L
aL13287L
aL13288L
aL13289L
aL13290L
aL13291L
aL13292L
aL13293L
aL13294L
aL13295L
aL13296L
aL13297L
aL13298L
aL13299L
aL13300L
aL13301L
aL13302L
aL13303L
aL13304L
aL13305L
aL13306L
aL13307L
aL13308L
aL13309L
aL13310L
aL13311L
aL13312L
aL13313L
aL13314L
aL13315L
aL13316L
aL13317L
aL13318L
aL13319L
aL13320L
aL13321L
aL13322L
aL13323L
aL13324L
aL13325L
aL13326L
aL13327L
aL13328L
aL13329L
aL13330L
aL13331L
aL13332L
aL13333L
aL13334L
aL13335L
aL13336L
aL13337L
aL13338L
aL13339L
aL13340L
aL13341L
aL13342L
aL13343L
aL13344L
aL13345L
aL13346L
aL13347L
aL13348L
aL13349L
aL13350L
aL13351L
aL13352L
aL13353L
aL13354L
aL13355L
aL13356L
aL13357L
aL13358L
aL13359L
aL13360L
aL13361L
aL13362L
aL13363L
aL13364L
aL13365L
aL13366L
aL13367L
aL13368L
aL13369L
aL13370L
aL13371L
aL13372L
aL13373L
aL13374L
aL13375L
aL13376L
aL13377L
aL13378L
aL13379L
aL13380L
aL13381L
aL13382L
aL13383L
aL13384L
aL13385L
aL13386L
aL13387L
aL13388L
aL13389L
aL13390L
aL13391L
aL13392L
aL13393L
aL13394L
aL13395L
aL13396L
aL13397L
aL13398L
aL13399L
aL13400L
aL13401L
aL13402L
aL13403L
aL13404L
aL13405L
aL13406L
aL13407L
aL13408L
aL13409L
aL13410L
aL13411L
aL13412L
aL13413L
aL13414L
aL13415L
aL13416L
aL13417L
aL13418L
aL13419L
aL13420L
aL13421L
aL13422L
aL13423L
aL13424L
aL13425L
aL13426L
aL13427L
aL13428L
aL13429L
aL13430L
aL13431L
aL13432L
aL13433L
aL13434L
aL13435L
aL13436L
aL13437L
aL13438L
aL13439L
aL13440L
aL13441L
aL13442L
aL13443L
aL13444L
aL13445L
aL13446L
aL13447L
aL13448L
aL13449L
aL13450L
aL13451L
aL13452L
aL13453L
aL13454L
aL13455L
aL13456L
aL13457L
aL13458L
aL13459L
aL13460L
aL13461L
aL13462L
aL13463L
aL13464L
aL13465L
aL13466L
aL13467L
aL13468L
aL13469L
aL13470L
aL13471L
aL13472L
aL13473L
aL13474L
aL13475L
aL13476L
aL13477L
aL13478L
aL13479L
aL13480L
aL13481L
aL13482L
aL13483L
aL13484L
aL13485L
aL13486L
aL13487L
aL13488L
aL13489L
aL13490L
aL13491L
aL13492L
aL13493L
aL13494L
aL13495L
aL13496L
aL13497L
aL13498L
aL13499L
aL13500L
aL13501L
aL13502L
aL13503L
aL13504L
aL13505L
aL13506L
aL13507L
aL13508L
aL13509L
aL13510L
aL13511L
aL13512L
aL13513L
aL13514L
aL13515L
aL13516L
aL13517L
aL13518L
aL13519L
aL13520L
aL13521L
aL13522L
aL13523L
aL13524L
aL13525L
aL13526L
aL13527L
aL13528L
aL13529L
aL13530L
aL13531L
aL13532L
aL13533L
aL13534L
aL13535L
aL13536L
aL13537L
aL13538L
aL13539L
aL13540L
aL13541L
aL13542L
aL13543L
aL13544L
aL13545L
aL13546L
aL13547L
aL13548L
aL13549L
aL13550L
aL13551L
aL13552L
aL13553L
aL13554L
aL13555L
aL13556L
aL13557L
aL13558L
aL13559L
aL13560L
aL13561L
aL13562L
aL13563L
aL13564L
aL13565L
aL13566L
aL13567L
aL13568L
aL13569L
aL13570L
aL13571L
aL13572L
aL13573L
aL13574L
aL13575L
aL13576L
aL13577L
aL13578L
aL13579L
aL13580L
aL13581L
aL13582L
aL13583L
aL13584L
aL13585L
aL13586L
aL13587L
aL13588L
aL13589L
aL13590L
aL13591L
aL13592L
aL13593L
aL13594L
aL13595L
aL13596L
aL13597L
aL13598L
aL13599L
aL13600L
aL13601L
aL13602L
aL13603L
aL13604L
aL13605L
aL13606L
aL13607L
aL13608L
aL13609L
aL13610L
aL13611L
aL13612L
aL13613L
aL13614L
aL13615L
aL13616L
aL13617L
aL13618L
aL13619L
aL13620L
aL13621L
aL13622L
aL13623L
aL13624L
aL13625L
aL13626L
aL13627L
aL13628L
aL13629L
aL13630L
aL13631L
aL13632L
aL13633L
aL13634L
aL13635L
aL13636L
aL13637L
aL13638L
aL13639L
aL13640L
aL13641L
aL13642L
aL13643L
aL13644L
aL13645L
aL13646L
aL13647L
aL13648L
aL13649L
aL13650L
aL13651L
aL13652L
aL13653L
aL13654L
aL13655L
aL13656L
aL13657L
aL13658L
aL13659L
aL13660L
aL13661L
aL13662L
aL13663L
aL13664L
aL13665L
aL13666L
aL13667L
aL13668L
aL13669L
aL13670L
aL13671L
aL13672L
aL13673L
aL13674L
aL13675L
aL13676L
aL13677L
aL13678L
aL13679L
aL13680L
aL13681L
aL13682L
aL13683L
aL13684L
aL13685L
aL13686L
aL13687L
aL13688L
aL13689L
aL13690L
aL13691L
aL13692L
aL13693L
aL13694L
aL13695L
aL13696L
aL13697L
aL13698L
aL13699L
aL13700L
aL13701L
aL13702L
aL13703L
aL13704L
aL13705L
aL13706L
aL13707L
aL13708L
aL13709L
aL13710L
aL13711L
aL13712L
aL13713L
aL13714L
aL13715L
aL13716L
aL13717L
aL13718L
aL13719L
aL13720L
aL13721L
aL13722L
aL13723L
aL13724L
aL13725L
aL13726L
aL13727L
aL13728L
aL13729L
aL13730L
aL13731L
aL13732L
aL13733L
aL13734L
aL13735L
aL13736L
aL13737L
aL13738L
aL13739L
aL13740L
aL13741L
aL13742L
aL13743L
aL13744L
aL13745L
aL13746L
aL13747L
aL13748L
aL13749L
aL13750L
aL13751L
aL13752L
aL13753L
aL13754L
aL13755L
aL13756L
aL13757L
aL13758L
aL13759L
aL13760L
aL13761L
aL13762L
aL13763L
aL13764L
aL13765L
aL13766L
aL13767L
aL13768L
aL13769L
aL13770L
aL13771L
aL13772L
aL13773L
aL13774L
aL13775L
aL13776L
aL13777L
aL13778L
aL13779L
aL13780L
aL13781L
aL13782L
aL13783L
aL13784L
aL13785L
aL13786L
aL13787L
aL13788L
aL13789L
aL13790L
aL13791L
aL13792L
aL13793L
aL13794L
aL13795L
aL13796L
aL13797L
aL13798L
aL13799L
aL13800L
aL13801L
aL13802L
aL13803L
aL13804L
aL13805L
aL13806L
aL13807L
aL13808L
aL13809L
aL13810L
aL13811L
aL13812L
aL13813L
aL13814L
aL13815L
aL13816L
aL13817L
aL13818L
aL13819L
aL13820L
aL13821L
aL13822L
aL13823L
aL13824L
aL13825L
aL13826L
aL13827L
aL13828L
aL13829L
aL13830L
aL13831L
aL13832L
aL13833L
aL13834L
aL13835L
aL13836L
aL13837L
aL13838L
aL13839L
aL13840L
aL13841L
aL13842L
aL13843L
aL13844L
aL13845L
aL13846L
aL13847L
aL13848L
aL13849L
aL13850L
aL13851L
aL13852L
aL13853L
aL13854L
aL13855L
aL13856L
aL13857L
aL13858L
aL13859L
aL13860L
aL13861L
aL13862L
aL13863L
aL13864L
aL13865L
aL13866L
aL13867L
aL13868L
aL13869L
aL13870L
aL13871L
aL13872L
aL13873L
aL13874L
aL13875L
aL13876L
aL13877L
aL13878L
aL13879L
aL13880L
aL13881L
aL13882L
aL13883L
aL13884L
aL13885L
aL13886L
aL13887L
aL13888L
aL13889L
aL13890L
aL13891L
aL13892L
aL13893L
aL13894L
aL13895L
aL13896L
aL13897L
aL13898L
aL13899L
aL13900L
aL13901L
aL13902L
aL13903L
aL13904L
aL13905L
aL13906L
aL13907L
aL13908L
aL13909L
aL13910L
aL13911L
aL13912L
aL13913L
aL13914L
aL13915L
aL13916L
aL13917L
aL13918L
aL13919L
aL13920L
aL13921L
aL13922L
aL13923L
aL13924L
aL13925L
aL13926L
aL13927L
aL13928L
aL13929L
aL13930L
aL13931L
aL13932L
aL13933L
aL13934L
aL13935L
aL13936L
aL13937L
aL13938L
aL13939L
aL13940L
aL13941L
aL13942L
aL13943L
aL13944L
aL13945L
aL13946L
aL13947L
aL13948L
aL13949L
aL13950L
aL13951L
aL13952L
aL13953L
aL13954L
aL13955L
aL13956L
aL13957L
aL13958L
aL13959L
aL13960L
aL13961L
aL13962L
aL13963L
aL13964L
aL13965L
aL13966L
aL13967L
aL13968L
aL13969L
aL13970L
aL13971L
aL13972L
aL13973L
aL13974L
aL13975L
aL13976L
aL13977L
aL13978L
aL13979L
aL13980L
aL13981L
aL13982L
aL13983L
aL13984L
aL13985L
aL13986L
aL13987L
aL13988L
aL13989L
aL13990L
aL13991L
aL13992L
aL13993L
aL13994L
aL13995L
aL13996L
aL13997L
aL13998L
aL13999L
aL14000L
aL14001L
aL14002L
aL14003L
aL14004L
aL14005L
aL14006L
aL14007L
aL14008L
aL14009L
aL14010L
aL14011L
aL14012L
aL14013L
aL14014L
aL14015L
aL14016L
aL14017L
aL14018L
aL14019L
aL14020L
aL14021L
aL14022L
aL14023L
aL14024L
aL14025L
aL14026L
aL14027L
aL14028L
aL14029L
aL14030L
aL14031L
aL14032L
aL14033L
aL14034L
aL14035L
aL14036L
aL14037L
aL14038L
aL14039L
aL14040L
aL14041L
aL14042L
aL14043L
aL14044L
aL14045L
aL14046L
aL14047L
aL14048L
aL14049L
aL14050L
aL14051L
aL14052L
aL14053L
aL14054L
aL14055L
aL14056L
aL14057L
aL14058L
aL14059L
aL14060L
aL14061L
aL14062L
aL14063L
aL14064L
aL14065L
aL14066L
aL14067L
aL14068L
aL14069L
aL14070L
aL14071L
aL14072L
aL14073L
aL14074L
aL14075L
aL14076L
aL14077L
aL14078L
aL14079L
aL14080L
aL14081L
aL14082L
aL14083L
aL14084L
aL14085L
aL14086L
aL14087L
aL14088L
aL14089L
aL14090L
aL14091L
aL14092L
aL14093L
aL14094L
aL14095L
aL14096L
aL14097L
aL14098L
aL14099L
aL14100L
aL14101L
aL14102L
aL14103L
aL14104L
aL14105L
aL14106L
aL14107L
aL14108L
aL14109L
aL14110L
aL14111L
aL14112L
aL14113L
aL14114L
aL14115L
aL14116L
aL14117L
aL14118L
aL14119L
aL14120L
aL14121L
aL14122L
aL14123L
aL14124L
aL14125L
aL14126L
aL14127L
aL14128L
aL14129L
aL14130L
aL14131L
aL14132L
aL14133L
aL14134L
aL14135L
aL14136L
aL14137L
aL14138L
aL14139L
aL14140L
aL14141L
aL14142L
aL14143L
aL14144L
aL14145L
aL14146L
aL14147L
aL14148L
aL14149L
aL14150L
aL14151L
aL14152L
aL14153L
aL14154L
aL14155L
aL14156L
aL14157L
aL14158L
aL14159L
aL14160L
aL14161L
aL14162L
aL14163L
aL14164L
aL14165L
aL14166L
aL14167L
aL14168L
aL14169L
aL14170L
aL14171L
aL14172L
aL14173L
aL14174L
aL14175L
aL14176L
aL14177L
aL14178L
aL14179L
aL14180L
aL14181L
aL14182L
aL14183L
aL14184L
aL14185L
aL14186L
aL14187L
aL14188L
aL14189L
aL14190L
aL14191L
aL14192L
aL14193L
aL14194L
aL14195L
aL14196L
aL14197L
aL14198L
aL14199L
aL14200L
aL14201L
aL14202L
aL14203L
aL14204L
aL14205L
aL14206L
aL14207L
aL14208L
aL14209L
aL14210L
aL14211L
aL14212L
aL14213L
aL14214L
aL14215L
aL14216L
aL14217L
aL14218L
aL14219L
aL14220L
aL14221L
aL14222L
aL14223L
aL14224L
aL14225L
aL14226L
aL14227L
aL14228L
aL14229L
aL14230L
aL14231L
aL14232L
aL14233L
aL14234L
aL14235L
aL14236L
aL14237L
aL14238L
aL14239L
aL14240L
aL14241L
aL14242L
aL14243L
aL14244L
aL14245L
aL14246L
aL14247L
aL14248L
aL14249L
aL14250L
aL14251L
aL14252L
aL14253L
aL14254L
aL14255L
aL14256L
aL14257L
aL14258L
aL14259L
aL14260L
aL14261L
aL14262L
aL14263L
aL14264L
aL14265L
aL14266L
aL14267L
aL14268L
aL14269L
aL14270L
aL14271L
aL14272L
aL14273L
aL14274L
aL14275L
aL14276L
aL14277L
aL14278L
aL14279L
aL14280L
aL14281L
aL14282L
aL14283L
aL14284L
aL14285L
aL14286L
aL14287L
aL14288L
aL14289L
aL14290L
aL14291L
aL14292L
aL14293L
aL14294L
aL14295L
aL14296L
aL14297L
aL14298L
aL14299L
aL14300L
aL14301L
aL14302L
aL14303L
aL14304L
aL14305L
aL14306L
aL14307L
aL14308L
aL14309L
aL14310L
aL14311L
aL14312L
aL14313L
aL14314L
aL14315L
aL14316L
aL14317L
aL14318L
aL14319L
aL14320L
aL14321L
aL14322L
aL14323L
aL14324L
aL14325L
aL14326L
aL14327L
aL14328L
aL14329L
aL14330L
aL14331L
aL14332L
aL14333L
aL14334L
aL14335L
aL14336L
aL14337L
aL14338L
aL14339L
aL14340L
aL14341L
aL14342L
aL14343L
aL14344L
aL14345L
aL14346L
aL14347L
aL14348L
aL14349L
aL14350L
aL14801L
aL14802L
aL14803L
aL14804L
aL14805L
aL14806L
aL14807L
aL14808L
aL14809L
aL14810L
aL14811L
aL14812L
aL14813L
aL14814L
aL14815L
aL14816L
aL14817L
aL14818L
aL14819L
aL14820L
aL14821L
aL14822L
aL14823L
aL14824L
aL14825L
aL14826L
aL14827L
aL14828L
aL14829L
aL14830L
aL14831L
aL14832L
aL14833L
aL14834L
aL14835L
aL14836L
aL14837L
aL14838L
aL14839L
aL14840L
aL14841L
aL14842L
aL14843L
aL14844L
aL14845L
aL14846L
aL14847L
aL14848L
aL14849L
aL14850L
aL14851L
aL14852L
aL14853L
aL14854L
aL14855L
aL14856L
aL14857L
aL14858L
aL14859L
aL14860L
aL14861L
aL14862L
aL14863L
aL14864L
aL14865L
aL14866L
aL14867L
aL14868L
aL14869L
aL14870L
aL14871L
aL14872L
aL14873L
aL14874L
aL14875L
aL14876L
aL14877L
aL14878L
aL14879L
aL14880L
aL14881L
aL14882L
aL14883L
aL14884L
aL14885L
aL14886L
aL14887L
aL14888L
aL14889L
aL14890L
aL14891L
aL14892L
aL14893L
aL14894L
aL14895L
aL14896L
aL14897L
aL14898L
aL14899L
aL14900L
aL14901L
aL14902L
aL14903L
aL14904L
aL14905L
aL14906L
aL14907L
aL14908L
aL14909L
aL14910L
aL14911L
aL14912L
aL14913L
aL14914L
aL14915L
aL14916L
aL14917L
aL14918L
aL14919L
aL14920L
aL14921L
aL14922L
aL14923L
aL14924L
aL14925L
aL14926L
aL14927L
aL14928L
aL14929L
aL14930L
aL14931L
aL14932L
aL14933L
aL14934L
aL14935L
aL14936L
aL14937L
aL14938L
aL14939L
aL14940L
aL14941L
aL14942L
aL14943L
aL14944L
aL14945L
aL14946L
aL14947L
aL14948L
aL14949L
aL14950L
aL14951L
aL14952L
aL14953L
aL14954L
aL14955L
aL14956L
aL14957L
aL14958L
aL14959L
aL14960L
aL14961L
aL14962L
aL14963L
aL14964L
aL14965L
aL14966L
aL14967L
aL14968L
aL14969L
aL14970L
aL14971L
aL14972L
aL14973L
aL14974L
aL14975L
aL14976L
aL14977L
aL14978L
aL14979L
aL14980L
aL14981L
aL14982L
aL14983L
aL14984L
aL14985L
aL14986L
aL14987L
aL14988L
aL14989L
aL14990L
aL14991L
aL14992L
aL14993L
aL14994L
aL14995L
aL14996L
aL14997L
aL14998L
aL14999L
aL15000L
aL15001L
aL15002L
aL15003L
aL15004L
aL15005L
aL15006L
aL15007L
aL15008L
aL15009L
aL15010L
aL15011L
aL15012L
aL15013L
aL15014L
aL15015L
aL15016L
aL15017L
aL15018L
aL15019L
aL15020L
aL15021L
aL15022L
aL15023L
aL15024L
aL15025L
aL15026L
aL15027L
aL15028L
aL15029L
aL15030L
aL15031L
aL15032L
aL15033L
aL15034L
aL15035L
aL15036L
aL15037L
aL15038L
aL15039L
aL15040L
aL15041L
aL15042L
aL15043L
aL15044L
aL15045L
aL15046L
aL15047L
aL15048L
aL15049L
aL15050L
aL15051L
aL15052L
aL15053L
aL15054L
aL15055L
aL15056L
aL15057L
aL15058L
aL15059L
aL15060L
aL15061L
aL15062L
aL15063L
aL15064L
aL15065L
aL15066L
aL15067L
aL15068L
aL15069L
aL15070L
aL15071L
aL15072L
aL15073L
aL15074L
aL15075L
aL15076L
aL15077L
aL15078L
aL15079L
aL15080L
aL15081L
aL15082L
aL15083L
aL15084L
aL15085L
aL15086L
aL15087L
aL15088L
aL15089L
aL15090L
aL15091L
aL15092L
aL15093L
aL15094L
aL15095L
aL15096L
aL15097L
aL15098L
aL15099L
aL15100L
aL15101L
aL15102L
aL15103L
aL15104L
aL15105L
aL15106L
aL15107L
aL15108L
aL15109L
aL15110L
aL15111L
aL15112L
aL15113L
aL15114L
aL15115L
aL15116L
aL15117L
aL15118L
aL15119L
aL15120L
aL15121L
aL15122L
aL15123L
aL15124L
aL15125L
aL15126L
aL15127L
aL15128L
aL15129L
aL15130L
aL15131L
aL15132L
aL15133L
aL15134L
aL15135L
aL15136L
aL15137L
aL15138L
aL15139L
aL15140L
aL15141L
aL15142L
aL15143L
aL15144L
aL15145L
aL15146L
aL15147L
aL15148L
aL15149L
aL15150L
aL15151L
aL15152L
aL15153L
aL15154L
aL15155L
aL15156L
aL15157L
aL15158L
aL15159L
aL15160L
aL15161L
aL15162L
aL15163L
aL15164L
aL15165L
aL15166L
aL15167L
aL15168L
aL15169L
aL15170L
aL15171L
aL15172L
aL15173L
aL15174L
aL15175L
aL15176L
aL15177L
aL15178L
aL15179L
aL15180L
aL15181L
aL15182L
aL15183L
aL15184L
aL15185L
aL15186L
aL15187L
aL15188L
aL15189L
aL15190L
aL15191L
aL15192L
aL15193L
aL15194L
aL15195L
aL15196L
aL15197L
aL15198L
aL15199L
aL15200L
aL15201L
aL15202L
aL15203L
aL15204L
aL15205L
aL15206L
aL15207L
aL15208L
aL15209L
aL15210L
aL15211L
aL15212L
aL15213L
aL15214L
aL15215L
aL15216L
aL15217L
aL15218L
aL15219L
aL15220L
aL15221L
aL15222L
aL15223L
aL15224L
aL15225L
aL15226L
aL15227L
aL15228L
aL15229L
aL15230L
aL15231L
aL15232L
aL15233L
aL15234L
aL15235L
aL15236L
aL15237L
aL15238L
aL15239L
aL15240L
aL15241L
aL15242L
aL15243L
aL15244L
aL15245L
aL15246L
aL15247L
aL15248L
aL15249L
aL15250L
aL15251L
aL15252L
aL15253L
aL15254L
aL15255L
aL15256L
aL15257L
aL15258L
aL15259L
aL15260L
aL15261L
aL15262L
aL15263L
aL15264L
aL15265L
aL15266L
aL15267L
aL15268L
aL15269L
aL15270L
aL15271L
aL15272L
aL15273L
aL15274L
aL15275L
aL15276L
aL15277L
aL15278L
aL15279L
aL15280L
aL15281L
aL15282L
aL15283L
aL15284L
aL15285L
aL15286L
aL15287L
aL15288L
aL15289L
aL15290L
aL15291L
aL15292L
aL15293L
aL15294L
aL15295L
aL15296L
aL15297L
aL15298L
aL15299L
aL15300L
aL15301L
aL15302L
aL15303L
aL15304L
aL15305L
aL15306L
aL15307L
aL15308L
aL15309L
aL15310L
aL15311L
aL15312L
aL15313L
aL15314L
aL15315L
aL15316L
aL15317L
aL15318L
aL15319L
aL15320L
aL15321L
aL15322L
aL15323L
aL15324L
aL15325L
aL15326L
aL15327L
aL15328L
aL15329L
aL15330L
aL15331L
aL15332L
aL15333L
aL15334L
aL15335L
aL15336L
aL15337L
aL15338L
aL15339L
aL15340L
aL15341L
aL15342L
aL15343L
aL15344L
aL15345L
aL15346L
aL15347L
aL15348L
aL15349L
aL15350L
aL15351L
aL15352L
aL15353L
aL15354L
aL15355L
aL15356L
aL15357L
aL15358L
aL15359L
aL15360L
aL15361L
aL15362L
aL15363L
aL15364L
aL15365L
aL15366L
aL15367L
aL15368L
aL15369L
aL15370L
aL15371L
aL15372L
aL15373L
aL15374L
aL15375L
aL15376L
aL15377L
aL15378L
aL15379L
aL15380L
aL15381L
aL15382L
aL15383L
aL15384L
aL15385L
aL15386L
aL15387L
aL15388L
aL15389L
aL15390L
aL15391L
aL15392L
aL15393L
aL15394L
aL15395L
aL15396L
aL15397L
aL15398L
aL15399L
aL15400L
aL15401L
aL15402L
aL15403L
aL15404L
aL15405L
aL15406L
aL15407L
aL15408L
aL15409L
aL15410L
aL15411L
aL15412L
aL15413L
aL15414L
aL15415L
aL15416L
aL15417L
aL15418L
aL15419L
aL15420L
aL15421L
aL15422L
aL15423L
aL15424L
aL15425L
aL15426L
aL15427L
aL15428L
aL15429L
aL15430L
aL15431L
aL15432L
aL15433L
aL15434L
aL15435L
aL15436L
aL15437L
aL15438L
aL15439L
aL15440L
aL15441L
aL15442L
aL15443L
aL15444L
aL15445L
aL15446L
aL15447L
aL15448L
aL15449L
aL15450L
aL15451L
aL15452L
aL15453L
aL15454L
aL15455L
aL15456L
aL15457L
aL15458L
aL15459L
aL15460L
aL15461L
aL15462L
aL15463L
aL15464L
aL15465L
aL15466L
aL15467L
aL15468L
aL15469L
aL15470L
aL15471L
aL15472L
aL15473L
aL15474L
aL15475L
aL15476L
aL15477L
aL15478L
aL15479L
aL15480L
aL15481L
aL15482L
aL15483L
aL15484L
aL15485L
aL15486L
aL15487L
aL15488L
aL15489L
aL15490L
aL15491L
aL15492L
aL15493L
aL15494L
aL15495L
aL15496L
aL15497L
aL15498L
aL15499L
aL15500L
aL15501L
aL15502L
aL15503L
aL15504L
aL15505L
aL15506L
aL15507L
aL15508L
aL15509L
aL15510L
aL15511L
aL15512L
aL15513L
aL15514L
aL15515L
aL15516L
aL15517L
aL15518L
aL15519L
aL15520L
aL15521L
aL15522L
aL15523L
aL15524L
aL15525L
aL15526L
aL15527L
aL15528L
aL15529L
aL15530L
aL15531L
aL15532L
aL15533L
aL15534L
aL15535L
aL15536L
aL15537L
aL15538L
aL15539L
aL15540L
aL15541L
aL15542L
aL15543L
aL15544L
aL15545L
aL15546L
aL15547L
aL15548L
aL15549L
aL15550L
aL15551L
aL15552L
aL15553L
aL15554L
aL15555L
aL15556L
aL15557L
aL15558L
aL15559L
aL15560L
aL15561L
aL15562L
aL15563L
aL15564L
aL15565L
aL15566L
aL15567L
aL15568L
aL15569L
aL15570L
aL15571L
aL15572L
aL15573L
aL15574L
aL15575L
aL15576L
aL15577L
aL15578L
aL15579L
aL15580L
aL15581L
aL15582L
aL15583L
aL15584L
aL15585L
aL15586L
aL15587L
aL15588L
aL15589L
aL15590L
aL15591L
aL15592L
aL15593L
aL15594L
aL15595L
aL15596L
aL15597L
aL15598L
aL15599L
aL15600L
aL19701L
aL19702L
aL19703L
aL19704L
aL19705L
aL19706L
aL19707L
aL19708L
aL19709L
aL19710L
aL19711L
aL19712L
aL19713L
aL19714L
aL19715L
aL19716L
aL19717L
aL19718L
aL19719L
aL19720L
aL19721L
aL19722L
aL19723L
aL19724L
aL19725L
aL19726L
aL19727L
aL19728L
aL19729L
aL19730L
aL19731L
aL19732L
aL19733L
aL19734L
aL19735L
aL19736L
aL19737L
aL19738L
aL19739L
aL19740L
aL19741L
aL19742L
aL19743L
aL19744L
aL19745L
aL19746L
aL19747L
aL19748L
aL19749L
aL19750L
aL19751L
aL19752L
aL19753L
aL19754L
aL19755L
aL19756L
aL19757L
aL19758L
aL19759L
aL19760L
aL19761L
aL19762L
aL19763L
aL19764L
aL19765L
aL19766L
aL19767L
aL19768L
aL19769L
aL19770L
aL19771L
aL19772L
aL19773L
aL19774L
aL19775L
aL19776L
aL19777L
aL19778L
aL19779L
aL19780L
aL19781L
aL19782L
aL19783L
aL19784L
aL19785L
aL19786L
aL19787L
aL19788L
aL19789L
aL19790L
aL19791L
aL19792L
aL19793L
aL19794L
aL19795L
aL19796L
aL19797L
aL19798L
aL19799L
aL19800L
aL19801L
aL19802L
aL19803L
aL19804L
aL19805L
aL19806L
aL19807L
aL19808L
aL19809L
aL19810L
aL19811L
aL19812L
aL19813L
aL19814L
aL19815L
aL19816L
aL19817L
aL19818L
aL19819L
aL19820L
aL19821L
aL19822L
aL19823L
aL19824L
aL19825L
aL19826L
aL19827L
aL19828L
aL19829L
aL19830L
aL19831L
aL19832L
aL19833L
aL19834L
aL19835L
aL19836L
aL19837L
aL19838L
aL19839L
aL19840L
aL19841L
aL19842L
aL19843L
aL19844L
aL19845L
aL19846L
aL19847L
aL19848L
aL19849L
aL19850L
aL19851L
aL19852L
aL19853L
aL19854L
aL19855L
aL19856L
aL19857L
aL19858L
aL19859L
aL19860L
aL19861L
aL19862L
aL19863L
aL19864L
aL19865L
aL19866L
aL19867L
aL19868L
aL19869L
aL19870L
aL19871L
aL19872L
aL19873L
aL19874L
aL19875L
aL19876L
aL19877L
aL19878L
aL19879L
aL19880L
aL19881L
aL19882L
aL19883L
aL19884L
aL19885L
aL19886L
aL19887L
aL19888L
aL19889L
aL19890L
aL19891L
aL19892L
aL19893L
aL19894L
aL19895L
aL19896L
aL19897L
aL19898L
aL19899L
aL19900L
aL19901L
aL19902L
aL19903L
aL19904L
aL19905L
aL19906L
aL19907L
aL19908L
aL19909L
aL19910L
aL19911L
aL19912L
aL19913L
aL19914L
aL19915L
aL19916L
aL19917L
aL19918L
aL19919L
aL19920L
aL19921L
aL19922L
aL19923L
aL19924L
aL19925L
aL19926L
aL19927L
aL19928L
aL19929L
aL19930L
aL19931L
aL19932L
aL19933L
aL19934L
aL19935L
aL19936L
aL19937L
aL19938L
aL19939L
aL19940L
aL19941L
aL19942L
aL19943L
aL19944L
aL19945L
aL19946L
aL19947L
aL19948L
aL19949L
aL19950L
aL19951L
aL19952L
aL19953L
aL19954L
aL19955L
aL19956L
aL19957L
aL19958L
aL19959L
aL19960L
aL19961L
aL19962L
aL19963L
aL19964L
aL19965L
aL19966L
aL19967L
aL19968L
aL19969L
aL19970L
aL19971L
aL19972L
aL19973L
aL19974L
aL19975L
aL19976L
aL19977L
aL19978L
aL19979L
aL19980L
aL19981L
aL19982L
aL19983L
aL19984L
aL19985L
aL19986L
aL19987L
aL19988L
aL19989L
aL19990L
aL19991L
aL19992L
aL19993L
aL19994L
aL19995L
aL19996L
aL19997L
aL19998L
aL19999L
aL20000L
aL20001L
aL20002L
aL20003L
aL20004L
aL20005L
aL20006L
aL20007L
aL20008L
aL20009L
aL20010L
aL20011L
aL20012L
aL20013L
aL20014L
aL20015L
aL20016L
aL20017L
aL20018L
aL20019L
aL20020L
aL20021L
aL20022L
aL20023L
aL20024L
aL20025L
aL20026L
aL20027L
aL20028L
aL20029L
aL20030L
aL20031L
aL20032L
aL20033L
aL20034L
aL20035L
aL20036L
aL20037L
aL20038L
aL20039L
aL20040L
aL20041L
aL20042L
aL20043L
aL20044L
aL20045L
aL20046L
aL20047L
aL20048L
aL20049L
aL20050L
aL20051L
aL20052L
aL20053L
aL20054L
aL20055L
aL20056L
aL20057L
aL20058L
aL20059L
aL20060L
aL20061L
aL20062L
aL20063L
aL20064L
aL20065L
aL20066L
aL20067L
aL20068L
aL20069L
aL20070L
aL20071L
aL20072L
aL20073L
aL20074L
aL20075L
aL20076L
aL20077L
aL20078L
aL20079L
aL20080L
aL20081L
aL20082L
aL20083L
aL20084L
aL20085L
aL20086L
aL20087L
aL20088L
aL20089L
aL20090L
aL20091L
aL20092L
aL20093L
aL20094L
aL20095L
aL20096L
aL20097L
aL20098L
aL20099L
aL20100L
aL20101L
aL20102L
aL20103L
aL20104L
aL20105L
aL20106L
aL20107L
aL20108L
aL20109L
aL20110L
aL20111L
aL20112L
aL20113L
aL20114L
aL20115L
aL20116L
aL20117L
aL20118L
aL20119L
aL20120L
aL20121L
aL20122L
aL20123L
aL20124L
aL20125L
aL20126L
aL20127L
aL20128L
aL20129L
aL20130L
aL20131L
aL20132L
aL20133L
aL20134L
aL20135L
aL20136L
aL20137L
aL20138L
aL20139L
aL20140L
aL20141L
aL20142L
aL20143L
aL20144L
aL20145L
aL20146L
aL20147L
aL20148L
aL20149L
aL20150L
aL20151L
aL20152L
aL20153L
aL20154L
aL20155L
aL20156L
aL20157L
aL20158L
aL20159L
aL20160L
aL20161L
aL20162L
aL20163L
aL20164L
aL20165L
aL20166L
aL20167L
aL20168L
aL20169L
aL20170L
aL20171L
aL20172L
aL20173L
aL20174L
aL20175L
aL20176L
aL20177L
aL20178L
aL20179L
aL20180L
aL20181L
aL20182L
aL20183L
aL20184L
aL20185L
aL20186L
aL20187L
aL20188L
aL20189L
aL20190L
aL20191L
aL20192L
aL20193L
aL20194L
aL20195L
aL20196L
aL20197L
aL20198L
aL20199L
aL20200L
aL20201L
aL20202L
aL20203L
aL20204L
aL20205L
aL20206L
aL20207L
aL20208L
aL20209L
aL20210L
aL20211L
aL20212L
aL20213L
aL20214L
aL20215L
aL20216L
aL20217L
aL20218L
aL20219L
aL20220L
aL20221L
aL20222L
aL20223L
aL20224L
aL20225L
aL20226L
aL20227L
aL20228L
aL20229L
aL20230L
aL20231L
aL20232L
aL20233L
aL20234L
aL20235L
aL20236L
aL20237L
aL20238L
aL20239L
aL20240L
aL20241L
aL20242L
aL20243L
aL20244L
aL20245L
aL20246L
aL20247L
aL20248L
aL20249L
aL20250L
aL20251L
aL20252L
aL20253L
aL20254L
aL20255L
aL20256L
aL20257L
aL20258L
aL20259L
aL20260L
aL20261L
aL20262L
aL20263L
aL20264L
aL20265L
aL20266L
aL20267L
aL20268L
aL20269L
aL20270L
aL20271L
aL20272L
aL20273L
aL20274L
aL20275L
aL20276L
aL20277L
aL20278L
aL20279L
aL20280L
aL20281L
aL20282L
aL20283L
aL20284L
aL20285L
aL20286L
aL20287L
aL20288L
aL20289L
aL20290L
aL20291L
aL20292L
aL20293L
aL20294L
aL20295L
aL20296L
aL20297L
aL20298L
aL20299L
aL20300L
aL20301L
aL20302L
aL20303L
aL20304L
aL20305L
aL20306L
aL20307L
aL20308L
aL20309L
aL20310L
aL20311L
aL20312L
aL20313L
aL20314L
aL20315L
aL20316L
aL20317L
aL20318L
aL20319L
aL20320L
aL20321L
aL20322L
aL20323L
aL20324L
aL20325L
aL20326L
aL20327L
aL20328L
aL20329L
aL20330L
aL20331L
aL20332L
aL20333L
aL20334L
aL20335L
aL20336L
aL20337L
aL20338L
aL20339L
aL20340L
aL20341L
aL20342L
aL20343L
aL20344L
aL20345L
aL20346L
aL20347L
aL20348L
aL20349L
aL20350L
aL20351L
aL20352L
aL20353L
aL20354L
aL20355L
aL20356L
aL20357L
aL20358L
aL20359L
aL20360L
aL20361L
aL20362L
aL20363L
aL20364L
aL20365L
aL20366L
aL20367L
aL20368L
aL20369L
aL20370L
aL20371L
aL20372L
aL20373L
aL20374L
aL20375L
aL20376L
aL20377L
aL20378L
aL20379L
aL20380L
aL20381L
aL20382L
aL20383L
aL20384L
aL20385L
aL20386L
aL20387L
aL20388L
aL20389L
aL20390L
aL20391L
aL20392L
aL20393L
aL20394L
aL20395L
aL20396L
aL20397L
aL20398L
aL20399L
aL20400L
aL20401L
aL20402L
aL20403L
aL20404L
aL20405L
aL20406L
aL20407L
aL20408L
aL20409L
aL20410L
aL20411L
aL20412L
aL20413L
aL20414L
aL20415L
aL20416L
aL20417L
aL20418L
aL20419L
aL20420L
aL20421L
aL20422L
aL20423L
aL20424L
aL20425L
aL20426L
aL20427L
aL20428L
aL20429L
aL20430L
aL20431L
aL20432L
aL20433L
aL20434L
aL20435L
aL20436L
aL20437L
aL20438L
aL20439L
aL20440L
aL20441L
aL20442L
aL20443L
aL20444L
aL20445L
aL20446L
aL20447L
aL20448L
aL20449L
aL20450L
aL20451L
aL20452L
aL20453L
aL20454L
aL20455L
aL20456L
aL20457L
aL20458L
aL20459L
aL20460L
aL20461L
aL20462L
aL20463L
aL20464L
aL20465L
aL20466L
aL20467L
aL20468L
aL20469L
aL20470L
aL20471L
aL20472L
aL20473L
aL20474L
aL20475L
aL20476L
aL20477L
aL20478L
aL20479L
aL20480L
aL20481L
aL20482L
aL20483L
aL20484L
aL20485L
aL20486L
aL20487L
aL20488L
aL20489L
aL20490L
aL20491L
aL20492L
aL20493L
aL20494L
aL20495L
aL20496L
aL20497L
aL20498L
aL20499L
aL20500L
aL21751L
aL21752L
aL21753L
aL21754L
aL21755L
aL21756L
aL21757L
aL21758L
aL21759L
aL21760L
aL21761L
aL21762L
aL21763L
aL21764L
aL21765L
aL21766L
aL21767L
aL21768L
aL21769L
aL21770L
aL21771L
aL21772L
aL21773L
aL21774L
aL21775L
aL21776L
aL21777L
aL21778L
aL21779L
aL21780L
aL21781L
aL21782L
aL21783L
aL21784L
aL21785L
aL21786L
aL21787L
aL21788L
aL21789L
aL21790L
aL21791L
aL21792L
aL21793L
aL21794L
aL21795L
aL21796L
aL21797L
aL21798L
aL21799L
aL21800L
aL21801L
aL21802L
aL21803L
aL21804L
aL21805L
aL21806L
aL21807L
aL21808L
aL21809L
aL21810L
aL21811L
aL21812L
aL21813L
aL21814L
aL21815L
aL21816L
aL21817L
aL21818L
aL21819L
aL21820L
aL21821L
aL21822L
aL21823L
aL21824L
aL21825L
aL21826L
aL21827L
aL21828L
aL21829L
aL21830L
aL21831L
aL21832L
aL21833L
aL21834L
aL21835L
aL21836L
aL21837L
aL21838L
aL21839L
aL21840L
aL21841L
aL21842L
aL21843L
aL21844L
aL21845L
aL21846L
aL21847L
aL21848L
aL21849L
aL21850L
aL21851L
aL21852L
aL21853L
aL21854L
aL21855L
aL21856L
aL21857L
aL21858L
aL21859L
aL21860L
aL21861L
aL21862L
aL21863L
aL21864L
aL21865L
aL21866L
aL21867L
aL21868L
aL21869L
aL21870L
aL21871L
aL21872L
aL21873L
aL21874L
aL21875L
aL21876L
aL21877L
aL21878L
aL21879L
aL21880L
aL21881L
aL21882L
aL21883L
aL21884L
aL21885L
aL21886L
aL21887L
aL21888L
aL21889L
aL21890L
aL21891L
aL21892L
aL21893L
aL21894L
aL21895L
aL21896L
aL21897L
aL21898L
aL21899L
aL21900L
aL21901L
aL21902L
aL21903L
aL21904L
aL21905L
aL21906L
aL21907L
aL21908L
aL21909L
aL21910L
aL21911L
aL21912L
aL21913L
aL21914L
aL21915L
aL21916L
aL21917L
aL21918L
aL21919L
aL21920L
aL21921L
aL21922L
aL21923L
aL21924L
aL21925L
aL21926L
aL21927L
aL21928L
aL21929L
aL21930L
aL21931L
aL21932L
aL21933L
aL21934L
aL21935L
aL21936L
aL21937L
aL21938L
aL21939L
aL21940L
aL21941L
aL21942L
aL21943L
aL21944L
aL21945L
aL21946L
aL21947L
aL21948L
aL21949L
aL21950L
aL21951L
aL21952L
aL21953L
aL21954L
aL21955L
aL21956L
aL21957L
aL21958L
aL21959L
aL21960L
aL21961L
aL21962L
aL21963L
aL21964L
aL21965L
aL21966L
aL21967L
aL21968L
aL21969L
aL21970L
aL21971L
aL21972L
aL21973L
aL21974L
aL21975L
aL21976L
aL21977L
aL21978L
aL21979L
aL21980L
aL21981L
aL21982L
aL21983L
aL21984L
aL21985L
aL21986L
aL21987L
aL21988L
aL21989L
aL21990L
aL21991L
aL21992L
aL21993L
aL21994L
aL21995L
aL21996L
aL21997L
aL21998L
aL21999L
aL22000L
aL22001L
aL22002L
aL22003L
aL22004L
aL22005L
aL22006L
aL22007L
aL22008L
aL22009L
aL22010L
aL22011L
aL22012L
aL22013L
aL22014L
aL22015L
aL22016L
aL22017L
aL22018L
aL22019L
aL22020L
aL22021L
aL22022L
aL22023L
aL22024L
aL22025L
aL22026L
aL22027L
aL22028L
aL22029L
aL22030L
aL22031L
aL22032L
aL22033L
aL22034L
aL22035L
aL22036L
aL22037L
aL22038L
aL22039L
aL22040L
aL22041L
aL22042L
aL22043L
aL22044L
aL22045L
aL22046L
aL22047L
aL22048L
aL22049L
aL22050L
aL22051L
aL22052L
aL22053L
aL22054L
aL22055L
aL22056L
aL22057L
aL22058L
aL22059L
aL22060L
aL22061L
aL22062L
aL22063L
aL22064L
aL22065L
aL22066L
aL22067L
aL22068L
aL22069L
aL22070L
aL22071L
aL22072L
aL22073L
aL22074L
aL22075L
aL22076L
aL22077L
aL22078L
aL22079L
aL22080L
aL22081L
aL22082L
aL22083L
aL22084L
aL22085L
aL22086L
aL22087L
aL22088L
aL22089L
aL22090L
aL22091L
aL22092L
aL22093L
aL22094L
aL22095L
aL22096L
aL22097L
aL22098L
aL22099L
aL22100L
aL22101L
aL22102L
aL22103L
aL22104L
aL22105L
aL22106L
aL22107L
aL22108L
aL22109L
aL22110L
aL22111L
aL22112L
aL22113L
aL22114L
aL22115L
aL22116L
aL22117L
aL22118L
aL22119L
aL22120L
aL22121L
aL22122L
aL22123L
aL22124L
aL22125L
aL22126L
aL22127L
aL22128L
aL22129L
aL22130L
aL22131L
aL22132L
aL22133L
aL22134L
aL22135L
aL22136L
aL22137L
aL22138L
aL22139L
aL22140L
aL22141L
aL22142L
aL22143L
aL22144L
aL22145L
aL22146L
aL22147L
aL22148L
aL22149L
aL22150L
aL21351L
aL21352L
aL21353L
aL21354L
aL21355L
aL21356L
aL21357L
aL21358L
aL21359L
aL21360L
aL21361L
aL21362L
aL21363L
aL21364L
aL21365L
aL21366L
aL21367L
aL21368L
aL21369L
aL21370L
aL21371L
aL21372L
aL21373L
aL21374L
aL21375L
aL21376L
aL21377L
aL21378L
aL21379L
aL21380L
aL21381L
aL21382L
aL21383L
aL21384L
aL21385L
aL21386L
aL21387L
aL21388L
aL21389L
aL21390L
aL21391L
aL21392L
aL21393L
aL21394L
aL21395L
aL21396L
aL21397L
aL21398L
aL21399L
aL21400L
aL21401L
aL21402L
aL21403L
aL21404L
aL21405L
aL21406L
aL21407L
aL21408L
aL21409L
aL21410L
aL21411L
aL21412L
aL21413L
aL21414L
aL21415L
aL21416L
aL21417L
aL21418L
aL21419L
aL21420L
aL21421L
aL21422L
aL21423L
aL21424L
aL21425L
aL21426L
aL21427L
aL21428L
aL21429L
aL21430L
aL21431L
aL21432L
aL21433L
aL21434L
aL21435L
aL21436L
aL21437L
aL21438L
aL21439L
aL21440L
aL21441L
aL21442L
aL21443L
aL21444L
aL21445L
aL21446L
aL21447L
aL21448L
aL21449L
aL21450L
aL21451L
aL21452L
aL21453L
aL21454L
aL21455L
aL21456L
aL21457L
aL21458L
aL21459L
aL21460L
aL21461L
aL21462L
aL21463L
aL21464L
aL21465L
aL21466L
aL21467L
aL21468L
aL21469L
aL21470L
aL21471L
aL21472L
aL21473L
aL21474L
aL21475L
aL21476L
aL21477L
aL21478L
aL21479L
aL21480L
aL21481L
aL21482L
aL21483L
aL21484L
aL21485L
aL21486L
aL21487L
aL21488L
aL21489L
aL21490L
aL21491L
aL21492L
aL21493L
aL21494L
aL21495L
aL21496L
aL21497L
aL21498L
aL21499L
aL21500L
aL21501L
aL21502L
aL21503L
aL21504L
aL21505L
aL21506L
aL21507L
aL21508L
aL21509L
aL21510L
aL21511L
aL21512L
aL21513L
aL21514L
aL21515L
aL21516L
aL21517L
aL21518L
aL21519L
aL21520L
aL21521L
aL21522L
aL21523L
aL21524L
aL21525L
aL21526L
aL21527L
aL21528L
aL21529L
aL21530L
aL21531L
aL21532L
aL21533L
aL21534L
aL21535L
aL21536L
aL21537L
aL21538L
aL21539L
aL21540L
aL21541L
aL21542L
aL21543L
aL21544L
aL21545L
aL21546L
aL21547L
aL21548L
aL21549L
aL21550L
aL21551L
aL21552L
aL21553L
aL21554L
aL21555L
aL21556L
aL21557L
aL21558L
aL21559L
aL21560L
aL21561L
aL21562L
aL21563L
aL21564L
aL21565L
aL21566L
aL21567L
aL21568L
aL21569L
aL21570L
aL21571L
aL21572L
aL21573L
aL21574L
aL21575L
aL21576L
aL21577L
aL21578L
aL21579L
aL21580L
aL21581L
aL21582L
aL21583L
aL21584L
aL21585L
aL21586L
aL21587L
aL21588L
aL21589L
aL21590L
aL21591L
aL21592L
aL21593L
aL21594L
aL21595L
aL21596L
aL21597L
aL21598L
aL21599L
aL21600L
aL21601L
aL21602L
aL21603L
aL21604L
aL21605L
aL21606L
aL21607L
aL21608L
aL21609L
aL21610L
aL21611L
aL21612L
aL21613L
aL21614L
aL21615L
aL21616L
aL21617L
aL21618L
aL21619L
aL21620L
aL21621L
aL21622L
aL21623L
aL21624L
aL21625L
aL21626L
aL21627L
aL21628L
aL21629L
aL21630L
aL21631L
aL21632L
aL21633L
aL21634L
aL21635L
aL21636L
aL21637L
aL21638L
aL21639L
aL21640L
aL21641L
aL21642L
aL21643L
aL21644L
aL21645L
aL21646L
aL21647L
aL21648L
aL21649L
aL21650L
aL21651L
aL21652L
aL21653L
aL21654L
aL21655L
aL21656L
aL21657L
aL21658L
aL21659L
aL21660L
aL21661L
aL21662L
aL21663L
aL21664L
aL21665L
aL21666L
aL21667L
aL21668L
aL21669L
aL21670L
aL21671L
aL21672L
aL21673L
aL21674L
aL21675L
aL21676L
aL21677L
aL21678L
aL21679L
aL21680L
aL21681L
aL21682L
aL21683L
aL21684L
aL21685L
aL21686L
aL21687L
aL21688L
aL21689L
aL21690L
aL21691L
aL21692L
aL21693L
aL21694L
aL21695L
aL21696L
aL21697L
aL21698L
aL21699L
aL21700L
aL21701L
aL21702L
aL21703L
aL21704L
aL21705L
aL21706L
aL21707L
aL21708L
aL21709L
aL21710L
aL21711L
aL21712L
aL21713L
aL21714L
aL21715L
aL21716L
aL21717L
aL21718L
aL21719L
aL21720L
aL21721L
aL21722L
aL21723L
aL21724L
aL21725L
aL21726L
aL21727L
aL21728L
aL21729L
aL21730L
aL21731L
aL21732L
aL21733L
aL21734L
aL21735L
aL21736L
aL21737L
aL21738L
aL21739L
aL21740L
aL21741L
aL21742L
aL21743L
aL21744L
aL21745L
aL21746L
aL21747L
aL21748L
aL21749L
aL21750L
aL20951L
aL20952L
aL20953L
aL20954L
aL20955L
aL20956L
aL20957L
aL20958L
aL20959L
aL20960L
aL20961L
aL20962L
aL20963L
aL20964L
aL20965L
aL20966L
aL20967L
aL20968L
aL20969L
aL20970L
aL20971L
aL20972L
aL20973L
aL20974L
aL20975L
aL20976L
aL20977L
aL20978L
aL20979L
aL20980L
aL20981L
aL20982L
aL20983L
aL20984L
aL20985L
aL20986L
aL20987L
aL20988L
aL20989L
aL20990L
aL20991L
aL20992L
aL20993L
aL20994L
aL20995L
aL20996L
aL20997L
aL20998L
aL20999L
aL21000L
aL21001L
aL21002L
aL21003L
aL21004L
aL21005L
aL21006L
aL21007L
aL21008L
aL21009L
aL21010L
aL21011L
aL21012L
aL21013L
aL21014L
aL21015L
aL21016L
aL21017L
aL21018L
aL21019L
aL21020L
aL21021L
aL21022L
aL21023L
aL21024L
aL21025L
aL21026L
aL21027L
aL21028L
aL21029L
aL21030L
aL21031L
aL21032L
aL21033L
aL21034L
aL21035L
aL21036L
aL21037L
aL21038L
aL21039L
aL21040L
aL21041L
aL21042L
aL21043L
aL21044L
aL21045L
aL21046L
aL21047L
aL21048L
aL21049L
aL21050L
aL21051L
aL21052L
aL21053L
aL21054L
aL21055L
aL21056L
aL21057L
aL21058L
aL21059L
aL21060L
aL21061L
aL21062L
aL21063L
aL21064L
aL21065L
aL21066L
aL21067L
aL21068L
aL21069L
aL21070L
aL21071L
aL21072L
aL21073L
aL21074L
aL21075L
aL21076L
aL21077L
aL21078L
aL21079L
aL21080L
aL21081L
aL21082L
aL21083L
aL21084L
aL21085L
aL21086L
aL21087L
aL21088L
aL21089L
aL21090L
aL21091L
aL21092L
aL21093L
aL21094L
aL21095L
aL21096L
aL21097L
aL21098L
aL21099L
aL21100L
aL21101L
aL21102L
aL21103L
aL21104L
aL21105L
aL21106L
aL21107L
aL21108L
aL21109L
aL21110L
aL21111L
aL21112L
aL21113L
aL21114L
aL21115L
aL21116L
aL21117L
aL21118L
aL21119L
aL21120L
aL21121L
aL21122L
aL21123L
aL21124L
aL21125L
aL21126L
aL21127L
aL21128L
aL21129L
aL21130L
aL21131L
aL21132L
aL21133L
aL21134L
aL21135L
aL21136L
aL21137L
aL21138L
aL21139L
aL21140L
aL21141L
aL21142L
aL21143L
aL21144L
aL21145L
aL21146L
aL21147L
aL21148L
aL21149L
aL21150L
aL21151L
aL21152L
aL21153L
aL21154L
aL21155L
aL21156L
aL21157L
aL21158L
aL21159L
aL21160L
aL21161L
aL21162L
aL21163L
aL21164L
aL21165L
aL21166L
aL21167L
aL21168L
aL21169L
aL21170L
aL21171L
aL21172L
aL21173L
aL21174L
aL21175L
aL21176L
aL21177L
aL21178L
aL21179L
aL21180L
aL21181L
aL21182L
aL21183L
aL21184L
aL21185L
aL21186L
aL21187L
aL21188L
aL21189L
aL21190L
aL21191L
aL21192L
aL21193L
aL21194L
aL21195L
aL21196L
aL21197L
aL21198L
aL21199L
aL21200L
aL21201L
aL21202L
aL21203L
aL21204L
aL21205L
aL21206L
aL21207L
aL21208L
aL21209L
aL21210L
aL21211L
aL21212L
aL21213L
aL21214L
aL21215L
aL21216L
aL21217L
aL21218L
aL21219L
aL21220L
aL21221L
aL21222L
aL21223L
aL21224L
aL21225L
aL21226L
aL21227L
aL21228L
aL21229L
aL21230L
aL21231L
aL21232L
aL21233L
aL21234L
aL21235L
aL21236L
aL21237L
aL21238L
aL21239L
aL21240L
aL21241L
aL21242L
aL21243L
aL21244L
aL21245L
aL21246L
aL21247L
aL21248L
aL21249L
aL21250L
aL21251L
aL21252L
aL21253L
aL21254L
aL21255L
aL21256L
aL21257L
aL21258L
aL21259L
aL21260L
aL21261L
aL21262L
aL21263L
aL21264L
aL21265L
aL21266L
aL21267L
aL21268L
aL21269L
aL21270L
aL21271L
aL21272L
aL21273L
aL21274L
aL21275L
aL21276L
aL21277L
aL21278L
aL21279L
aL21280L
aL21281L
aL21282L
aL21283L
aL21284L
aL21285L
aL21286L
aL21287L
aL21288L
aL21289L
aL21290L
aL21291L
aL21292L
aL21293L
aL21294L
aL21295L
aL21296L
aL21297L
aL21298L
aL21299L
aL21300L
aL21301L
aL21302L
aL21303L
aL21304L
aL21305L
aL21306L
aL21307L
aL21308L
aL21309L
aL21310L
aL21311L
aL21312L
aL21313L
aL21314L
aL21315L
aL21316L
aL21317L
aL21318L
aL21319L
aL21320L
aL21321L
aL21322L
aL21323L
aL21324L
aL21325L
aL21326L
aL21327L
aL21328L
aL21329L
aL21330L
aL21331L
aL21332L
aL21333L
aL21334L
aL21335L
aL21336L
aL21337L
aL21338L
aL21339L
aL21340L
aL21341L
aL21342L
aL21343L
aL21344L
aL21345L
aL21346L
aL21347L
aL21348L
aL21349L
aL21350L
aL20501L
aL20502L
aL20503L
aL20504L
aL20505L
aL20506L
aL20507L
aL20508L
aL20509L
aL20510L
aL20511L
aL20512L
aL20513L
aL20514L
aL20515L
aL20516L
aL20517L
aL20518L
aL20519L
aL20520L
aL20521L
aL20522L
aL20523L
aL20524L
aL20525L
aL20526L
aL20527L
aL20528L
aL20529L
aL20530L
aL20531L
aL20532L
aL20533L
aL20534L
aL20535L
aL20536L
aL20537L
aL20538L
aL20539L
aL20540L
aL20541L
aL20542L
aL20543L
aL20544L
aL20545L
aL20546L
aL20547L
aL20548L
aL20549L
aL20550L
aL20551L
aL20552L
aL20553L
aL20554L
aL20555L
aL20556L
aL20557L
aL20558L
aL20559L
aL20560L
aL20561L
aL20562L
aL20563L
aL20564L
aL20565L
aL20566L
aL20567L
aL20568L
aL20569L
aL20570L
aL20571L
aL20572L
aL20573L
aL20574L
aL20575L
aL20576L
aL20577L
aL20578L
aL20579L
aL20580L
aL20581L
aL20582L
aL20583L
aL20584L
aL20585L
aL20586L
aL20587L
aL20588L
aL20589L
aL20590L
aL20591L
aL20592L
aL20593L
aL20594L
aL20595L
aL20596L
aL20597L
aL20598L
aL20599L
aL20600L
aL20601L
aL20602L
aL20603L
aL20604L
aL20605L
aL20606L
aL20607L
aL20608L
aL20609L
aL20610L
aL20611L
aL20612L
aL20613L
aL20614L
aL20615L
aL20616L
aL20617L
aL20618L
aL20619L
aL20620L
aL20621L
aL20622L
aL20623L
aL20624L
aL20625L
aL20626L
aL20627L
aL20628L
aL20629L
aL20630L
aL20631L
aL20632L
aL20633L
aL20634L
aL20635L
aL20636L
aL20637L
aL20638L
aL20639L
aL20640L
aL20641L
aL20642L
aL20643L
aL20644L
aL20645L
aL20646L
aL20647L
aL20648L
aL20649L
aL20650L
aL20651L
aL20652L
aL20653L
aL20654L
aL20655L
aL20656L
aL20657L
aL20658L
aL20659L
aL20660L
aL20661L
aL20662L
aL20663L
aL20664L
aL20665L
aL20666L
aL20667L
aL20668L
aL20669L
aL20670L
aL20671L
aL20672L
aL20673L
aL20674L
aL20675L
aL20676L
aL20677L
aL20678L
aL20679L
aL20680L
aL20681L
aL20682L
aL20683L
aL20684L
aL20685L
aL20686L
aL20687L
aL20688L
aL20689L
aL20690L
aL20691L
aL20692L
aL20693L
aL20694L
aL20695L
aL20696L
aL20697L
aL20698L
aL20699L
aL20700L
aL20701L
aL20702L
aL20703L
aL20704L
aL20705L
aL20706L
aL20707L
aL20708L
aL20709L
aL20710L
aL20711L
aL20712L
aL20713L
aL20714L
aL20715L
aL20716L
aL20717L
aL20718L
aL20719L
aL20720L
aL20721L
aL20722L
aL20723L
aL20724L
aL20725L
aL20726L
aL20727L
aL20728L
aL20729L
aL20730L
aL20731L
aL20732L
aL20733L
aL20734L
aL20735L
aL20736L
aL20737L
aL20738L
aL20739L
aL20740L
aL20741L
aL20742L
aL20743L
aL20744L
aL20745L
aL20746L
aL20747L
aL20748L
aL20749L
aL20750L
aL20751L
aL20752L
aL20753L
aL20754L
aL20755L
aL20756L
aL20757L
aL20758L
aL20759L
aL20760L
aL20761L
aL20762L
aL20763L
aL20764L
aL20765L
aL20766L
aL20767L
aL20768L
aL20769L
aL20770L
aL20771L
aL20772L
aL20773L
aL20774L
aL20775L
aL20776L
aL20777L
aL20778L
aL20779L
aL20780L
aL20781L
aL20782L
aL20783L
aL20784L
aL20785L
aL20786L
aL20787L
aL20788L
aL20789L
aL20790L
aL20791L
aL20792L
aL20793L
aL20794L
aL20795L
aL20796L
aL20797L
aL20798L
aL20799L
aL20800L
aL20801L
aL20802L
aL20803L
aL20804L
aL20805L
aL20806L
aL20807L
aL20808L
aL20809L
aL20810L
aL20811L
aL20812L
aL20813L
aL20814L
aL20815L
aL20816L
aL20817L
aL20818L
aL20819L
aL20820L
aL20821L
aL20822L
aL20823L
aL20824L
aL20825L
aL20826L
aL20827L
aL20828L
aL20829L
aL20830L
aL20831L
aL20832L
aL20833L
aL20834L
aL20835L
aL20836L
aL20837L
aL20838L
aL20839L
aL20840L
aL20841L
aL20842L
aL20843L
aL20844L
aL20845L
aL20846L
aL20847L
aL20848L
aL20849L
aL20850L
aL20851L
aL20852L
aL20853L
aL20854L
aL20855L
aL20856L
aL20857L
aL20858L
aL20859L
aL20860L
aL20861L
aL20862L
aL20863L
aL20864L
aL20865L
aL20866L
aL20867L
aL20868L
aL20869L
aL20870L
aL20871L
aL20872L
aL20873L
aL20874L
aL20875L
aL20876L
aL20877L
aL20878L
aL20879L
aL20880L
aL20881L
aL20882L
aL20883L
aL20884L
aL20885L
aL20886L
aL20887L
aL20888L
aL20889L
aL20890L
aL20891L
aL20892L
aL20893L
aL20894L
aL20895L
aL20896L
aL20897L
aL20898L
aL20899L
aL20900L
a.